(dp1
S'output'
p2
S"<type 'exceptions.AttributeError'> 'file' object has no attribute 'rfind'"
p3
sS'layer'
p4
S'/home/camilo/Escritorio/repo_git/web2py/applications/datos/controllers/maquinas.py'
p5
sS'code'
p6
S'# -*- coding: utf-8 -*-\n# intente algo como\nimport os\n\ndef index():\n    cabezas = ["ip_machine", "code_course", "operative_system", "memory", "processor"]\n    filas =  db1((db1.machine.ip_machine)).select(\n        db1.machine.ip_machine, db1.machine.code_course, db1.machine.operative_system,db1.machine.memory,db1.machine.processor\n    )\n    acciones = [T("Restart"),T("Add user")]\n    return locals()\n\ndef ejecutar():\n    ids = request.vars["id"]\n    #query = /......\n    filas =  db1((db1.machine.ip_machine)).select(\n        db1.machine.ip_machine\n        #, db1.machine.operative_system\n    )\n\n    ips = []\n    for i in ids:\n        entero = int(i)-1\n        ips.append( filas[entero]["ip_machine"] )\n    #print "IPS: ", ips\n\n    nombre = \'Ansible/inventario\'\n    archivo_inventario = open(os.path.join(request.folder, \'private\', nombre))\n    print os.path.dirname(archivo_inventario)\n    redirect(URL(\'maquinas\', \'mostrar\'))\n    \ndef mostrar():\n    #query = \n    #campos = [\'ip_machine\', \'code_course\',\'operative_system\',\'memory\',\'processor\']\n    grid = SQLFORM.grid(db1.machine,\n                        #query = asdasdasdasdasads\n                       selectable = lambda ids : redirect(URL(\'maquinas\', \'ejecutar\', vars=dict(id=ids))),\n                        csv=False\n                       )\n    return locals()\n\nresponse._vars=response._caller(ejecutar)\n'
p7
sS'snapshot'
p8
(dp9
sS'traceback'
p10
S'Traceback (most recent call last):\n  File "/home/camilo/Escritorio/repo_git/web2py/gluon/restricted.py", line 227, in restricted\n    exec ccode in environment\n  File "/home/camilo/Escritorio/repo_git/web2py/applications/datos/controllers/maquinas.py", line 42, in <module>\n  File "/home/camilo/Escritorio/repo_git/web2py/gluon/globals.py", line 415, in <lambda>\n    self._caller = lambda f: f()\n  File "/home/camilo/Escritorio/repo_git/web2py/applications/datos/controllers/maquinas.py", line 29, in ejecutar\n    print os.path.dirname(archivo_inventario)\n  File "/usr/lib/python2.7/posixpath.py", line 122, in dirname\n    i = p.rfind(\'/\') + 1\nAttributeError: \'file\' object has no attribute \'rfind\'\n'
p11
s.