(dp1
S'output'
p2
S"<type 'exceptions.UnboundLocalError'> local variable 'variables_extra' referenced before assignment"
p3
sS'layer'
p4
S'/home/camilo/Escritorio/nuevo_nuevo_repo_git/proyecto_mv/applications/datos/controllers/ports.py'
p5
sS'code'
p6
S'# -*- coding: utf-8 -*-\n# essayez quelque chose comme\nimport evaluar_expresion\n\n\ndef index(): return dict(message="hello from ports.py")\n\n\n@auth.requires_login()\ndef ports():\n    ids = request.vars["ids"]\n    variables_extra = dict( remote=\'all\', action=\'check\')\n    \n    redirect(URL(\'maquinas\', \'ejecutar\', vars= dict(ids=ids, opcion=\'ports\', variables_extra = variables_extra, is_debug=True)))\n    return dict()\n\n@auth.requires_login()\ndef open_ports():\n    ids = request.vars["ids"]\n    form = SQLFORM.factory(  Field(\'ports\', label=\'Ports\', requires=IS_NOT_EMPTY())).process()\n    form[\'_align\'] = "center"\n    if form.accepted:\n        puertos = request.vars.ports\n        puertos = evaluar_expresion.separar_x_comas(puertos)\n        #servicio = \'yes\' if request.vars.servicio else \'no\'\n        variables_extra = dict( remote=\'all\', action=\'open\', puertos=puertos)\n    \n    redirect(URL(\'maquinas\', \'ejecutar\', vars= dict(ids=ids, opcion=\'ports\', variables_extra = variables_extra, is_debug=False)))\n    return dict()\n\nresponse._vars=response._caller(open_ports)\n'
p7
sS'snapshot'
p8
(dp9
sS'traceback'
p10
S'Traceback (most recent call last):\n  File "/home/camilo/Escritorio/nuevo_nuevo_repo_git/proyecto_mv/gluon/restricted.py", line 227, in restricted\n    exec ccode in environment\n  File "/home/camilo/Escritorio/nuevo_nuevo_repo_git/proyecto_mv/applications/datos/controllers/ports.py", line 31, in <module>\n  File "/home/camilo/Escritorio/nuevo_nuevo_repo_git/proyecto_mv/gluon/globals.py", line 415, in <lambda>\n    self._caller = lambda f: f()\n  File "/home/camilo/Escritorio/nuevo_nuevo_repo_git/proyecto_mv/gluon/tools.py", line 4231, in f\n    return action(*a, **b)\n  File "/home/camilo/Escritorio/nuevo_nuevo_repo_git/proyecto_mv/applications/datos/controllers/ports.py", line 28, in open_ports\n    redirect(URL(\'maquinas\', \'ejecutar\', vars= dict(ids=ids, opcion=\'ports\', variables_extra = variables_extra, is_debug=False)))\nUnboundLocalError: local variable \'variables_extra\' referenced before assignment\n'
p11
s.