(dp1
S'output'
p2
S"<class 'gluon.contrib.pg8000.ProgrammingError'> ('ERROR', '42601', 'error de sintaxis en o cerca de \\xc2\\xabgroup\\xc2\\xbb')"
p3
sS'layer'
p4
S'/home/Carlos/Documentos/web2py/applications/datos/models/db1.py'
p5
sS'code'
p6
S"# -*- coding: utf-8 -*-\n#Define DAL object, with max 10 connection\ndb1 = DAL(STR_DAL, pool_size=10)\n\n#Auth\nfrom gluon.tools import Auth, Service, PluginManager\n\nauth = Auth(db1)\nservice = Service()\nplugins = PluginManager()\n\n## create all tables needed by auth if not custom tables\nauth.define_tables(username=False, signature=False)\n\n## configure email\nmail = auth.settings.mailer\nmail.settings.server = 'logging' if request.is_local else myconf.take('smtp.server')\nmail.settings.sender = myconf.take('smtp.sender')\nmail.settings.login = myconf.take('smtp.login')\n\n## configure auth policy\nauth.settings.registration_requires_verification = False\nauth.settings.registration_requires_approval = False\nauth.settings.reset_password_requires_verification = True\n\n\n#Define tables off model \n\ndb1.define_table('course',\n                Field('code_course','integer', length=3, label = T('Course Code'),requires=IS_NOT_EMPTY()),\n                Field('name_course','string', length=60, label = T('Course Name'), requires=IS_NOT_EMPTY()),\n                Field('description_course','text',label = T('Course Description')))\ndb1.course.code_course.requires=IS_NOT_IN_DB(db1, db1.course.code_course)\n\ndb1.define_table('machine',\n                Field('ip_machine', label=T('IPv4 Machine'), requires=IS_IPV4(minip='10.20.251.1', maxip='10.20.251.255')),\n                Field('code_course','reference course', label=T('Code Course'), requires=IS_IN_DB(db1,db1.course.id, '%(name_course)s', zero=T('Choose One'))),\n                Field('operative_system','string', label=T('Operative System'), requires=IS_IN_SET(OPERA_SYSTEM, zero=T('Select One'), error_message='You no choose one')),\n                Field('memory','string',label=T('Memory RAM'), requires=IS_IN_SET(RAM_MEMORY, zero=T('Select One'), error_message='You no choose one')),\n                Field('processor','string',label=T('Processor'), requires=IS_IN_SET(PROCESSOR, zero=T('Select One'), error_message='You no choose one')),\n                Field('description_machine','text',label=T('Description'),requires=IS_NOT_EMPTY()))\n\ndb1.machine.ip_machine.requires=IS_NOT_IN_DB(db1, db1.machine.ip_machine)\n\n\ndb1.define_table('port_machine',\n                Field('ip_machine','reference machine', label = T('IPv4 Machine'), requires=IS_IN_DB(db1,db1.machine.id, '%(ip_machine)s', zero = T('Select One'))),\n                Field('number_port','string', label = T('Port'), requires=IS_IN_SET(P_HOST, zero = T('Select One'), error_message='You no choose one')),\n                Field('hostname','string',label = T('Hostname'), requires=IS_IN_SET(HOSTNAME, zero = T('Select One'), error_message='You no choose one')))\n\ndb1.port_machine.number_port.requires=IS_NOT_IN_DB(db1(db1.port_machine.ip_machine==request.vars.ip_machine),\n    'port_machine.number_port')\n\ndb1.define_table('group',\n               Field('cod_group', 'integer', requires=IS_NOT_EMPTY()),\n               Field('id_teacher','reference auth_user', label = T('Teacher'), requires=IS_IN_DB(db1,db1.auth_user.id, '%(name)s', zero = T('Select One'))),\n               Field('cod_course','reference course'),\n               Field('semester', 'string', requires=IS_NOT_EMPTY()))\n\ncourses = db1(db1.group.cod_course==request.vars.cod_course)\n\ndb1.group.cod_group.requires=[IS_NOT_IN_DB(courses(db1.group.semester==request.vars.semester), 'group.cod_group')]\n"
p7
sS'snapshot'
p8
(dp9
S'exception'
p10
(dp11
S'__module__'
p12
S"'gluon.contrib.pg8000'"
p13
sS'__getslice__'
p14
S"<method-wrapper '__getslice__' of ProgrammingError object>"
p15
sS'__str__'
p16
S"<method-wrapper '__str__' of ProgrammingError object>"
p17
sS'__reduce__'
p18
S'<built-in method __reduce__ of ProgrammingError object>'
p19
sS'__dict__'
p20
S'{}'
p21
sS'__sizeof__'
p22
S'<built-in method __sizeof__ of ProgrammingError object>'
p23
sS'__weakref__'
p24
S'None'
p25
sS'__init__'
p26
S"<method-wrapper '__init__' of ProgrammingError object>"
p27
sS'__setattr__'
p28
S"<method-wrapper '__setattr__' of ProgrammingError object>"
p29
sS'__reduce_ex__'
p30
S'<built-in method __reduce_ex__ of ProgrammingError object>'
p31
sS'__new__'
p32
S'<built-in method __new__ of type object>'
p33
sS'__format__'
p34
S'<built-in method __format__ of ProgrammingError object>'
p35
sS'__class__'
p36
S"<class 'gluon.contrib.pg8000.ProgrammingError'>"
p37
sS'__doc__'
p38
S"'Generic exception raised for programming errors....http://www.python.org/dev/peps/pep-0249/>`_.\\n    '"
p39
sS'__getitem__'
p40
S"<method-wrapper '__getitem__' of ProgrammingError object>"
p41
sS'__setstate__'
p42
S'<built-in method __setstate__ of ProgrammingError object>'
p43
sS'__getattribute__'
p44
S"<method-wrapper '__getattribute__' of ProgrammingError object>"
p45
sS'args'
p46
S"('ERROR', '42601', 'error de sintaxis en o cerca de \\xc2\\xabgroup\\xc2\\xbb')"
p47
sS'__subclasshook__'
p48
S'<built-in method __subclasshook__ of type object>'
p49
sS'__unicode__'
p50
S'<built-in method __unicode__ of ProgrammingError object>'
p51
sS'__delattr__'
p52
S"<method-wrapper '__delattr__' of ProgrammingError object>"
p53
sS'__repr__'
p54
S"<method-wrapper '__repr__' of ProgrammingError object>"
p55
sS'__hash__'
p56
S"<method-wrapper '__hash__' of ProgrammingError object>"
p57
ssS'evalue'
p58
S"('ERROR', '42601', 'error de sintaxis en o cerca de \\xc2\\xabgroup\\xc2\\xbb')"
p59
sS'request'
p60
cgluon.html
XML_unpickle
p61
(S's\x03o\x00\x00<div><table><tr><td style="font-weight:bold;vertical-align:top;">ajax</td><td style="vertical-align:top;">:</td><td><div>True</div></td></tr><tr><td style="font-weight:bold;vertical-align:top;">application</td><td style="vertical-align:top;">:</td><td><div>datos</div></td></tr><tr><td style="font-weight:bold;vertical-align:top;">args</td><td style="vertical-align:top;">:</td><td><div><table></table></div></td></tr><tr><td style="font-weight:bold;vertical-align:top;">cid</td><td style="vertical-align:top;">:</td><td><div>c758852638836</div></td></tr><tr><td style="font-weight:bold;vertical-align:top;">client</td><td style="vertical-align:top;">:</td><td><div>127.0.0.1</div></td></tr><tr><td style="font-weight:bold;vertical-align:top;">controller</td><td style="vertical-align:top;">:</td><td><div>appadmin</div></td></tr><tr><td style="font-weight:bold;vertical-align:top;">cookies</td><td style="vertical-align:top;">:</td><td><div><table><tr><td style="font-weight:bold;vertical-align:top;">session_id_admin</td><td style="vertical-align:top;">:</td><td><div>127.0.0.1-5ed3a5e1-8b20-4931-bd39-19d5c40cd33f<table><tr><td style="font-weight:bold;vertical-align:top;">comment</td><td style="vertical-align:top;">:</td><td><div></div></td></tr><tr><td style="font-weight:bold;vertical-align:top;">domain</td><td style="vertical-align:top;">:</td><td><div></div></td></tr><tr><td style="font-weight:bold;vertical-align:top;">expires</td><td style="vertical-align:top;">:</td><td><div></div></td></tr><tr><td style="font-weight:bold;vertical-align:top;">httponly</td><td style="vertical-align:top;">:</td><td><div></div></td></tr><tr><td style="font-weight:bold;vertical-align:top;">max-age</td><td style="vertical-align:top;">:</td><td><div></div></td></tr><tr><td style="font-weight:bold;vertical-align:top;">path</td><td style="vertical-align:top;">:</td><td><div></div></td></tr><tr><td style="font-weight:bold;vertical-align:top;">secure</td><td style="vertical-align:top;">:</td><td><div></div></td></tr><tr><td style="font-weight:bold;vertical-align:top;">version</td><td style="vertical-align:top;">:</td><td><div></div></td></tr></table></div></td></tr><tr><td style="font-weight:bold;vertical-align:top;">session_id_app2</td><td style="vertical-align:top;">:</td><td><div>127.0.0.1-f003e210-c339-4d43-b053-b03ff0d051a8<table><tr><td style="font-weight:bold;vertical-align:top;">comment</td><td style="vertical-align:top;">:</td><td><div></div></td></tr><tr><td style="font-weight:bold;vertical-align:top;">domain</td><td style="vertical-align:top;">:</td><td><div></div></td></tr><tr><td style="font-weight:bold;vertical-align:top;">expires</td><td style="vertical-align:top;">:</td><td><div></div></td></tr><tr><td style="font-weight:bold;vertical-align:top;">httponly</td><td style="vertical-align:top;">:</td><td><div></div></td></tr><tr><td style="font-weight:bold;vertical-align:top;">max-age</td><td style="vertical-align:top;">:</td><td><div></div></td></tr><tr><td style="font-weight:bold;vertical-align:top;">path</td><td style="vertical-align:top;">:</td><td><div></div></td></tr><tr><td style="font-weight:bold;vertical-align:top;">secure</td><td style="vertical-align:top;">:</td><td><div></div></td></tr><tr><td style="font-weight:bold;vertical-align:top;">version</td><td style="vertical-align:top;">:</td><td><div></div></td></tr></table></div></td></tr><tr><td style="font-weight:bold;vertical-align:top;">session_id_datos</td><td style="vertical-align:top;">:</td><td><div>127.0.0.1-df28f56d-adef-4198-8e13-a07e20d62fd1<table><tr><td style="font-weight:bold;vertical-align:top;">comment</td><td style="vertical-align:top;">:</td><td><div></div></td></tr><tr><td style="font-weight:bold;vertical-align:top;">domain</td><td style="vertical-align:top;">:</td><td><div></div></td></tr><tr><td style="font-weight:bold;vertical-align:top;">expires</td><td style="vertical-align:top;">:</td><td><div></div></td></tr><tr><td style="font-weight:bold;vertical-align:top;">httponly</td><td style="vertical-align:top;">:</td><td><div></div></td></tr><tr><td style="font-weight:bold;vertical-align:top;">max-age</td><td style="vertical-align:top;">:</td><td><div></div></td></tr><tr><td style="font-weight:bold;vertical-align:top;">path</td><td style="vertical-align:top;">:</td><td><div></div></td></tr><tr><td style="font-weight:bold;vertical-align:top;">secure</td><td style="vertical-align:top;">:</td><td><div></div></td></tr><tr><td style="font-weight:bold;vertical-align:top;">version</td><td style="vertical-align:top;">:</td><td><div></div></td></tr></table></div></td></tr><tr><td style="font-weight:bold;vertical-align:top;">session_id_misdatos</td><td style="vertical-align:top;">:</td><td><div>127.0.0.1-78f81588-f09d-4dba-aa74-a7826f2ad732<table><tr><td style="font-weight:bold;vertical-align:top;">comment</td><td style="vertical-align:top;">:</td><td><div></div></td></tr><tr><td style="font-weight:bold;vertical-align:top;">domain</td><td style="vertical-align:top;">:</td><td><div></div></td></tr><tr><td style="font-weight:bold;vertical-align:top;">expires</td><td style="vertical-align:top;">:</td><td><div></div></td></tr><tr><td style="font-weight:bold;vertical-align:top;">httponly</td><td style="vertical-align:top;">:</td><td><div></div></td></tr><tr><td style="font-weight:bold;vertical-align:top;">max-age</td><td style="vertical-align:top;">:</td><td><div></div></td></tr><tr><td style="font-weight:bold;vertical-align:top;">path</td><td style="vertical-align:top;">:</td><td><div></div></td></tr><tr><td style="font-weight:bold;vertical-align:top;">secure</td><td style="vertical-align:top;">:</td><td><div></div></td></tr><tr><td style="font-weight:bold;vertical-align:top;">version</td><td style="vertical-align:top;">:</td><td><div></div></td></tr></table></div></td></tr><tr><td style="font-weight:bold;vertical-align:top;">session_id_reddit_clone</td><td style="vertical-align:top;">:</td><td><div>127.0.0.1-b0c1da51-ddd3-4802-a782-578759ce6140<table><tr><td style="font-weight:bold;vertical-align:top;">comment</td><td style="vertical-align:top;">:</td><td><div></div></td></tr><tr><td style="font-weight:bold;vertical-align:top;">domain</td><td style="vertical-align:top;">:</td><td><div></div></td></tr><tr><td style="font-weight:bold;vertical-align:top;">expires</td><td style="vertical-align:top;">:</td><td><div></div></td></tr><tr><td style="font-weight:bold;vertical-align:top;">httponly</td><td style="vertical-align:top;">:</td><td><div></div></td></tr><tr><td style="font-weight:bold;vertical-align:top;">max-age</td><td style="vertical-align:top;">:</td><td><div></div></td></tr><tr><td style="font-weight:bold;vertical-align:top;">path</td><td style="vertical-align:top;">:</td><td><div></div></td></tr><tr><td style="font-weight:bold;vertical-align:top;">secure</td><td style="vertical-align:top;">:</td><td><div></div></td></tr><tr><td style="font-weight:bold;vertical-align:top;">version</td><td style="vertical-align:top;">:</td><td><div></div></td></tr></table></div></td></tr><tr><td style="font-weight:bold;vertical-align:top;">session_id_welcome</td><td style="vertical-align:top;">:</td><td><div>127.0.0.1-549586fa-3c3c-45e1-8397-7cdc598616af<table><tr><td style="font-weight:bold;vertical-align:top;">comment</td><td style="vertical-align:top;">:</td><td><div></div></td></tr><tr><td style="font-weight:bold;vertical-align:top;">domain</td><td style="vertical-align:top;">:</td><td><div></div></td></tr><tr><td style="font-weight:bold;vertical-align:top;">expires</td><td style="vertical-align:top;">:</td><td><div></div></td></tr><tr><td style="font-weight:bold;vertical-align:top;">httponly</td><td style="vertical-align:top;">:</td><td><div></div></td></tr><tr><td style="font-weight:bold;vertical-align:top;">max-age</td><td style="vertical-align:top;">:</td><td><div></div></td></tr><tr><td style="font-weight:bold;vertical-align:top;">path</td><td style="vertical-align:top;">:</td><td><div></div></td></tr><tr><td style="font-weight:bold;vertical-align:top;">secure</td><td style="vertical-align:top;">:</td><td><div></div></td></tr><tr><td style="font-weight:bold;vertical-align:top;">version</td><td style="vertical-align:top;">:</td><td><div></div></td></tr></table></div></td></tr></table></div></td></tr><tr><td style="font-weight:bold;vertical-align:top;">env</td><td style="vertical-align:top;">:</td><td><div><table><tr><td style="font-weight:bold;vertical-align:top;">HTTP_ACCEPT</td><td style="vertical-align:top;">:</td><td><div>*/*</div></td></tr><tr><td style="font-weight:bold;vertical-align:top;">HTTP_ACCEPT_ENCODING</td><td style="vertical-align:top;">:</td><td><div>gzip, deflate</div></td></tr><tr><td style="font-weight:bold;vertical-align:top;">HTTP_ACCEPT_LANGUAGE</td><td style="vertical-align:top;">:</td><td><div>es-AR,es;q=0.8,en-US;q=0.5,en;q=0.3</div></td></tr><tr><td style="font-weight:bold;vertical-align:top;">HTTP_CONNECTION</td><td style="vertical-align:top;">:</td><td><div>keep-alive</div></td></tr><tr><td style="font-weight:bold;vertical-align:top;">HTTP_COOKIE</td><td style="vertical-align:top;">:</td><td><div>session_id_welcome=127.0.0.1-549586fa-3c3c-45e1-8397-7cdc598616af; session_id_admin=127.0.0.1-5ed3a5e1-8b20-4931-bd39-19d5c40cd33f; session_id_misdatos=127.0.0.1-78f81588-f09d-4dba-aa74-a7826f2ad732; session_id_reddit_clone=127.0.0.1-b0c1da51-ddd3-4802-a782-578759ce6140; session_id_app2=127.0.0.1-f003e210-c339-4d43-b053-b03ff0d051a8; session_id_datos=127.0.0.1-df28f56d-adef-4198-8e13-a07e20d62fd1</div></td></tr><tr><td style="font-weight:bold;vertical-align:top;">HTTP_HOST</td><td style="vertical-align:top;">:</td><td><div>127.0.0.1:8000</div></td></tr><tr><td style="font-weight:bold;vertical-align:top;">HTTP_REFERER</td><td style="vertical-align:top;">:</td><td><div>http://127.0.0.1:8000/admin/default/edit/datos/models/db1.py</div></td></tr><tr><td style="font-weight:bold;vertical-align:top;">HTTP_USER_AGENT</td><td style="vertical-align:top;">:</td><td><div>Mozilla/5.0 (X11; Fedora; Linux x86_64; rv:44.0) Gecko/20100101 Firefox/44.0</div></td></tr><tr><td style="font-weight:bold;vertical-align:top;">HTTP_WEB2PY_COMPONENT_ELEMENT</td><td style="vertical-align:top;">:</td><td><div>c758852638836</div></td></tr><tr><td style="font-weight:bold;vertical-align:top;">HTTP_WEB2PY_COMPONENT_LOCATION</td><td style="vertical-align:top;">:</td><td><div>http://127.0.0.1:8000/admin/default/edit/datos/models/db1.py</div></td></tr><tr><td style="font-weight:bold;vertical-align:top;">HTTP_X_REQUESTED_WITH</td><td style="vertical-align:top;">:</td><td><div>XMLHttpRequest</div></td></tr><tr><td style="font-weight:bold;vertical-align:top;">PATH_INFO</td><td style="vertical-align:top;">:</td><td><div>/datos/appadmin/hooks</div></td></tr><tr><td style="font-weight:bold;vertical-align:top;">QUERY_STRING</td><td style="vertical-align:top;">:</td><td><div></div></td></tr><tr><td style="font-weight:bold;vertical-align:top;">REMOTE_ADDR</td><td style="vertical-align:top;">:</td><td><div>127.0.0.1</div></td></tr><tr><td style="font-weight:bold;vertical-align:top;">REMOTE_PORT</td><td style="vertical-align:top;">:</td><td><div>38860</div></td></tr><tr><td style="font-weight:bold;vertical-align:top;">REQUEST_METHOD</td><td style="vertical-align:top;">:</td><td><div>GET</div></td></tr><tr><td style="font-weight:bold;vertical-align:top;">SCRIPT_NAME</td><td style="vertical-align:top;">:</td><td><div></div></td></tr><tr><td style="font-weight:bold;vertical-align:top;">SERVER_NAME</td><td style="vertical-align:top;">:</td><td><div>localhost.localdomain</div></td></tr><tr><td style="font-weight:bold;vertical-align:top;">SERVER_PORT</td><td style="vertical-align:top;">:</td><td><div>8000</div></td></tr><tr><td style="font-weight:bold;vertical-align:top;">SERVER_PROTOCOL</td><td style="vertical-align:top;">:</td><td><div>HTTP/1.1</div></td></tr><tr><td style="font-weight:bold;vertical-align:top;">SERVER_SOFTWARE</td><td style="vertical-align:top;">:</td><td><div>Rocket 1.2.6</div></td></tr><tr><td style="font-weight:bold;vertical-align:top;">app_folders</td><td style="vertical-align:top;">:</td><td><div>set([&#x27;/home/Carlos/Documentos/web2py/applications/datos/&#x27;, &#x27;/home/Carlos/Documentos/web2py/applications/welcome/&#x27;, &#x27;/home/Carlos/Documentos/web2py/applications/misdatos/&#x27;, &#x27;/home/Carlos/Documentos/web2py/applications/admin/&#x27;])</div></td></tr><tr><td style="font-weight:bold;vertical-align:top;">applications_parent</td><td style="vertical-align:top;">:</td><td><div>/home/Carlos/Documentos/web2py</div></td></tr><tr><td style="font-weight:bold;vertical-align:top;">cmd_args</td><td style="vertical-align:top;">:</td><td><div><table></table></div></td></tr><tr><td style="font-weight:bold;vertical-align:top;">cmd_options</td><td style="vertical-align:top;">:</td><td><div>&lt;Values at 0x7f6a731f2128: {&#x27;verbose&#x27;: False, &#x27;ip&#x27;: &#x27;127.0.0.1&#x27;, &#x27;debuglevel&#x27;: 30, &#x27;with_scheduler&#x27;: False, &#x27;ips&#x27;: [&#x27;127.0.0.1&#x27;], &#x27;shutdown_timeout&#x27;: 5, &#x27;taskbar&#x27;: False, &#x27;with_coverage&#x27;: False, &#x27;scheduler_groups&#x27;: None, &#x27;port&#x27;: 8000, &#x27;maxthreads&#x27;: None, &#x27;softcron&#x27;: False, &#x27;server_name&#x27;: &#x27;localhost.localdomain&#x27;, &#x27;bpython&#x27;: False, &#x27;nogui&#x27;: False, &#x27;pid_filename&#x27;: &#x27;httpserver.pid&#x27;, &#x27;print_errors&#x27;: False, &#x27;extcron&#x27;: False, &#x27;runcron&#x27;: False, &#x27;run_system_tests&#x27;: False, &#x27;test&#x27;: None, &#x27;folder&#x27;: &#x27;/home/Carlos/Documentos/web2py&#x27;, &#x27;config&#x27;: &#x27;&#x27;, &#x27;minthreads&#x27;: None, &#x27;shell&#x27;: None, &#x27;run&#x27;: &#x27;&#x27;, &#x27;log_filename&#x27;: &#x27;httpserver.log&#x27;, &#x27;profiler_dir&#x27;: None, &#x27;args&#x27;: [&#x27;&#x27;], &#x27;socket_timeout&#x27;: 5, &#x27;ssl_ca_certificate&#x27;: None, &#x27;scheduler&#x27;: None, &#x27;interfaces&#x27;: None, &#x27;ssl_private_key&#x27;: &#x27;&#x27;, &#x27;gae&#x27;: None, &#x27;password&#x27;: &#x27;&lt;ask&gt;&#x27;, &#x27;request_queue_size&#x27;: 5, &#x27;ssl_certificate&#x27;: &#x27;&#x27;, &#x27;cronjob&#x27;: False, &#x27;numthreads&#x27;: None, &#x27;quiet&#x27;: False, &#x27;import_models&#x27;: False, &#x27;timeout&#x27;: 10, &#x27;plain&#x27;: False, &#x27;nobanner&#x27;: False}&gt;</div></td></tr><tr><td style="font-weight:bold;vertical-align:top;">db_sessions</td><td style="vertical-align:top;">:</td><td><div>set([])</div></td></tr><tr><td style="font-weight:bold;vertical-align:top;">debugging</td><td style="vertical-align:top;">:</td><td><div>True</div></td></tr><tr><td style="font-weight:bold;vertical-align:top;">gluon_parent</td><td style="vertical-align:top;">:</td><td><div>/home/Carlos/Documentos/web2py</div></td></tr><tr><td style="font-weight:bold;vertical-align:top;">http_accept</td><td style="vertical-align:top;">:</td><td><div>*/*</div></td></tr><tr><td style="font-weight:bold;vertical-align:top;">http_accept_encoding</td><td style="vertical-align:top;">:</td><td><div>gzip, deflate</div></td></tr><tr><td style="font-weight:bold;vertical-align:top;">http_accept_language</td><td style="vertical-align:top;">:</td><td><div>es-AR,es;q=0.8,en-US;q=0.5,en;q=0.3</div></td></tr><tr><td style="font-weight:bold;vertical-align:top;">http_connection</td><td style="vertical-align:top;">:</td><td><div>keep-alive</div></td></tr><tr><td style="font-weight:bold;vertical-align:top;">http_cookie</td><td style="vertical-align:top;">:</td><td><div>session_id_welcome=127.0.0.1-549586fa-3c3c-45e1-8397-7cdc598616af; session_id_admin=127.0.0.1-5ed3a5e1-8b20-4931-bd39-19d5c40cd33f; session_id_misdatos=127.0.0.1-78f81588-f09d-4dba-aa74-a7826f2ad732; session_id_reddit_clone=127.0.0.1-b0c1da51-ddd3-4802-a782-578759ce6140; session_id_app2=127.0.0.1-f003e210-c339-4d43-b053-b03ff0d051a8; session_id_datos=127.0.0.1-df28f56d-adef-4198-8e13-a07e20d62fd1</div></td></tr><tr><td style="font-weight:bold;vertical-align:top;">http_host</td><td style="vertical-align:top;">:</td><td><div>127.0.0.1:8000</div></td></tr><tr><td style="font-weight:bold;vertical-align:top;">http_referer</td><td style="vertical-align:top;">:</td><td><div>http://127.0.0.1:8000/admin/default/edit/datos/models/db1.py</div></td></tr><tr><td style="font-weight:bold;vertical-align:top;">http_user_agent</td><td style="vertical-align:top;">:</td><td><div>Mozilla/5.0 (X11; Fedora; Linux x86_64; rv:44.0) Gecko/20100101 Firefox/44.0</div></td></tr><tr><td style="font-weight:bold;vertical-align:top;">http_web2py_component_element</td><td style="vertical-align:top;">:</td><td><div>c758852638836</div></td></tr><tr><td style="font-weight:bold;vertical-align:top;">http_web2py_component_location</td><td style="vertical-align:top;">:</td><td><div>http://127.0.0.1:8000/admin/default/edit/datos/models/db1.py</div></td></tr><tr><td style="font-weight:bold;vertical-align:top;">http_x_requested_with</td><td style="vertical-align:top;">:</td><td><div>XMLHttpRequest</div></td></tr><tr><td style="font-weight:bold;vertical-align:top;">is_jython</td><td style="vertical-align:top;">:</td><td><div>False</div></td></tr><tr><td style="font-weight:bold;vertical-align:top;">is_pypy</td><td style="vertical-align:top;">:</td><td><div>False</div></td></tr><tr><td style="font-weight:bold;vertical-align:top;">is_source</td><td style="vertical-align:top;">:</td><td><div>True</div></td></tr><tr><td style="font-weight:bold;vertical-align:top;">local_hosts</td><td style="vertical-align:top;">:</td><td><div><table><tr><td><div>::1</div></td></tr><tr><td><div>::ffff:127.0.0.1</div></td></tr><tr><td><div>127.0.0.1</div></td></tr><tr><td><div>localhost.localdomain</div></td></tr></table></div></td></tr><tr><td style="font-weight:bold;vertical-align:top;">path_info</td><td style="vertical-align:top;">:</td><td><div>/datos/appadmin/hooks</div></td></tr><tr><td style="font-weight:bold;vertical-align:top;">query_string</td><td style="vertical-align:top;">:</td><td><div></div></td></tr><tr><td style="font-weight:bold;vertical-align:top;">remote_addr</td><td style="vertical-align:top;">:</td><td><div>127.0.0.1</div></td></tr><tr><td style="font-weight:bold;vertical-align:top;">remote_port</td><td style="vertical-align:top;">:</td><td><div>38860</div></td></tr><tr><td style="font-weight:bold;vertical-align:top;">request_method</td><td style="vertical-align:top;">:</td><td><div>GET</div></td></tr><tr><td style="font-weight:bold;vertical-align:top;">request_uri</td><td style="vertical-align:top;">:</td><td><div>/datos/appadmin/hooks</div></td></tr><tr><td style="font-weight:bold;vertical-align:top;">script_name</td><td style="vertical-align:top;">:</td><td><div></div></td></tr><tr><td style="font-weight:bold;vertical-align:top;">server_name</td><td style="vertical-align:top;">:</td><td><div>localhost.localdomain</div></td></tr><tr><td style="font-weight:bold;vertical-align:top;">server_port</td><td style="vertical-align:top;">:</td><td><div>8000</div></td></tr><tr><td style="font-weight:bold;vertical-align:top;">server_protocol</td><td style="vertical-align:top;">:</td><td><div>HTTP/1.1</div></td></tr><tr><td style="font-weight:bold;vertical-align:top;">server_software</td><td style="vertical-align:top;">:</td><td><div>Rocket 1.2.6</div></td></tr><tr><td style="font-weight:bold;vertical-align:top;">web2py_path</td><td style="vertical-align:top;">:</td><td><div>/home/Carlos/Documentos/web2py</div></td></tr><tr><td style="font-weight:bold;vertical-align:top;">web2py_version</td><td style="vertical-align:top;">:</td><td><div>2.13.4-stable+timestamp.2015.12.26.04.59.39</div></td></tr><tr><td style="font-weight:bold;vertical-align:top;">wsgi.errors</td><td style="vertical-align:top;">:</td><td><div>&lt;open file &#x27;&lt;stderr&gt;&#x27;, mode &#x27;w&#x27; at 0x7f6a849241e0&gt;</div></td></tr><tr><td style="font-weight:bold;vertical-align:top;">wsgi.file_wrapper</td><td style="vertical-align:top;">:</td><td><div>&lt;class wsgiref.util.FileWrapper at 0x7f6a7329aa10&gt;</div></td></tr><tr><td style="font-weight:bold;vertical-align:top;">wsgi.input</td><td style="vertical-align:top;">:</td><td><div>&lt;socket._fileobject object at 0x7f6a396e09d0&gt;</div></td></tr><tr><td style="font-weight:bold;vertical-align:top;">wsgi.multiprocess</td><td style="vertical-align:top;">:</td><td><div>False</div></td></tr><tr><td style="font-weight:bold;vertical-align:top;">wsgi.multithread</td><td style="vertical-align:top;">:</td><td><div>True</div></td></tr><tr><td style="font-weight:bold;vertical-align:top;">wsgi.run_once</td><td style="vertical-align:top;">:</td><td><div>False</div></td></tr><tr><td style="font-weight:bold;vertical-align:top;">wsgi.url_scheme</td><td style="vertical-align:top;">:</td><td><div>http</div></td></tr><tr><td style="font-weight:bold;vertical-align:top;">wsgi.version</td><td style="vertical-align:top;">:</td><td><div><table><tr><td><div>1</div></td></tr><tr><td><div>0</div></td></tr></table></div></td></tr><tr><td style="font-weight:bold;vertical-align:top;">wsgi_errors</td><td style="vertical-align:top;">:</td><td><div>&lt;open file &#x27;&lt;stderr&gt;&#x27;, mode &#x27;w&#x27; at 0x7f6a849241e0&gt;</div></td></tr><tr><td style="font-weight:bold;vertical-align:top;">wsgi_file_wrapper</td><td style="vertical-align:top;">:</td><td><div>&lt;class wsgiref.util.FileWrapper at 0x7f6a7329aa10&gt;</div></td></tr><tr><td style="font-weight:bold;vertical-align:top;">wsgi_input</td><td style="vertical-align:top;">:</td><td><div>&lt;socket._fileobject object at 0x7f6a396e09d0&gt;</div></td></tr><tr><td style="font-weight:bold;vertical-align:top;">wsgi_multiprocess</td><td style="vertical-align:top;">:</td><td><div>False</div></td></tr><tr><td style="font-weight:bold;vertical-align:top;">wsgi_multithread</td><td style="vertical-align:top;">:</td><td><div>True</div></td></tr><tr><td style="font-weight:bold;vertical-align:top;">wsgi_run_once</td><td style="vertical-align:top;">:</td><td><div>False</div></td></tr><tr><td style="font-weight:bold;vertical-align:top;">wsgi_url_scheme</td><td style="vertical-align:top;">:</td><td><div>http</div></td></tr><tr><td style="font-weight:bold;vertical-align:top;">wsgi_version</td><td style="vertical-align:top;">:</td><td><div><table><tr><td><div>1</div></td></tr><tr><td><div>0</div></td></tr></table></div></td></tr></table></div></td></tr><tr><td style="font-weight:bold;vertical-align:top;">extension</td><td style="vertical-align:top;">:</td><td><div>html</div></td></tr><tr><td style="font-weight:bold;vertical-align:top;">folder</td><td style="vertical-align:top;">:</td><td><div>/home/Carlos/Documentos/web2py/applications/datos/</div></td></tr><tr><td style="font-weight:bold;vertical-align:top;">function</td><td style="vertical-align:top;">:</td><td><div>hooks</div></td></tr><tr><td style="font-weight:bold;vertical-align:top;">global_settings</td><td style="vertical-align:top;">:</td><td><div><table><tr><td style="font-weight:bold;vertical-align:top;">app_folders</td><td style="vertical-align:top;">:</td><td><div>set([&#x27;/home/Carlos/Documentos/web2py/applications/datos/&#x27;, &#x27;/home/Carlos/Documentos/web2py/applications/welcome/&#x27;, &#x27;/home/Carlos/Documentos/web2py/applications/misdatos/&#x27;, &#x27;/home/Carlos/Documentos/web2py/applications/admin/&#x27;])</div></td></tr><tr><td style="font-weight:bold;vertical-align:top;">applications_parent</td><td style="vertical-align:top;">:</td><td><div>/home/Carlos/Documentos/web2py</div></td></tr><tr><td style="font-weight:bold;vertical-align:top;">cmd_args</td><td style="vertical-align:top;">:</td><td><div><table></table></div></td></tr><tr><td style="font-weight:bold;vertical-align:top;">cmd_options</td><td style="vertical-align:top;">:</td><td><div>&lt;Values at 0x7f6a731f2128: {&#x27;verbose&#x27;: False, &#x27;ip&#x27;: &#x27;127.0.0.1&#x27;, &#x27;debuglevel&#x27;: 30, &#x27;with_scheduler&#x27;: False, &#x27;ips&#x27;: [&#x27;127.0.0.1&#x27;], &#x27;shutdown_timeout&#x27;: 5, &#x27;taskbar&#x27;: False, &#x27;with_coverage&#x27;: False, &#x27;scheduler_groups&#x27;: None, &#x27;port&#x27;: 8000, &#x27;maxthreads&#x27;: None, &#x27;softcron&#x27;: False, &#x27;server_name&#x27;: &#x27;localhost.localdomain&#x27;, &#x27;bpython&#x27;: False, &#x27;nogui&#x27;: False, &#x27;pid_filename&#x27;: &#x27;httpserver.pid&#x27;, &#x27;print_errors&#x27;: False, &#x27;extcron&#x27;: False, &#x27;runcron&#x27;: False, &#x27;run_system_tests&#x27;: False, &#x27;test&#x27;: None, &#x27;folder&#x27;: &#x27;/home/Carlos/Documentos/web2py&#x27;, &#x27;config&#x27;: &#x27;&#x27;, &#x27;minthreads&#x27;: None, &#x27;shell&#x27;: None, &#x27;run&#x27;: &#x27;&#x27;, &#x27;log_filename&#x27;: &#x27;httpserver.log&#x27;, &#x27;profiler_dir&#x27;: None, &#x27;args&#x27;: [&#x27;&#x27;], &#x27;socket_timeout&#x27;: 5, &#x27;ssl_ca_certificate&#x27;: None, &#x27;scheduler&#x27;: None, &#x27;interfaces&#x27;: None, &#x27;ssl_private_key&#x27;: &#x27;&#x27;, &#x27;gae&#x27;: None, &#x27;password&#x27;: &#x27;&lt;ask&gt;&#x27;, &#x27;request_queue_size&#x27;: 5, &#x27;ssl_certificate&#x27;: &#x27;&#x27;, &#x27;cronjob&#x27;: False, &#x27;numthreads&#x27;: None, &#x27;quiet&#x27;: False, &#x27;import_models&#x27;: False, &#x27;timeout&#x27;: 10, &#x27;plain&#x27;: False, &#x27;nobanner&#x27;: False}&gt;</div></td></tr><tr><td style="font-weight:bold;vertical-align:top;">db_sessions</td><td style="vertical-align:top;">:</td><td><div>set([])</div></td></tr><tr><td style="font-weight:bold;vertical-align:top;">debugging</td><td style="vertical-align:top;">:</td><td><div>True</div></td></tr><tr><td style="font-weight:bold;vertical-align:top;">gluon_parent</td><td style="vertical-align:top;">:</td><td><div>/home/Carlos/Documentos/web2py</div></td></tr><tr><td style="font-weight:bold;vertical-align:top;">is_jython</td><td style="vertical-align:top;">:</td><td><div>False</div></td></tr><tr><td style="font-weight:bold;vertical-align:top;">is_pypy</td><td style="vertical-align:top;">:</td><td><div>False</div></td></tr><tr><td style="font-weight:bold;vertical-align:top;">is_source</td><td style="vertical-align:top;">:</td><td><div>True</div></td></tr><tr><td style="font-weight:bold;vertical-align:top;">local_hosts</td><td style="vertical-align:top;">:</td><td><div><table><tr><td><div>::1</div></td></tr><tr><td><div>::ffff:127.0.0.1</div></td></tr><tr><td><div>127.0.0.1</div></td></tr><tr><td><div>localhost.localdomain</div></td></tr></table></div></td></tr><tr><td style="font-weight:bold;vertical-align:top;">web2py_version</td><td style="vertical-align:top;">:</td><td><div>2.13.4-stable+timestamp.2015.12.26.04.59.39</div></td></tr></table></div></td></tr><tr><td style="font-weight:bold;vertical-align:top;">is_https</td><td style="vertical-align:top;">:</td><td><div>False</div></td></tr><tr><td style="font-weight:bold;vertical-align:top;">is_local</td><td style="vertical-align:top;">:</td><td><div>True</div></td></tr><tr><td style="font-weight:bold;vertical-align:top;">is_restful</td><td style="vertical-align:top;">:</td><td><div>False</div></td></tr><tr><td style="font-weight:bold;vertical-align:top;">is_scheduler</td><td style="vertical-align:top;">:</td><td><div>False</div></td></tr><tr><td style="font-weight:bold;vertical-align:top;">is_shell</td><td style="vertical-align:top;">:</td><td><div>False</div></td></tr><tr><td style="font-weight:bold;vertical-align:top;">now</td><td style="vertical-align:top;">:</td><td><div>datetime.datetime(2016, 3, 8, 14, 16, 10, 38948)</div></td></tr><tr><td style="font-weight:bold;vertical-align:top;">raw_args</td><td style="vertical-align:top;">:</td><td><div></div></td></tr><tr><td style="font-weight:bold;vertical-align:top;">raw_extension</td><td style="vertical-align:top;">:</td><td><div>None</div></td></tr><tr><td style="font-weight:bold;vertical-align:top;">url</td><td style="vertical-align:top;">:</td><td><div>/datos/appadmin/hooks</div></td></tr><tr><td style="font-weight:bold;vertical-align:top;">utcnow</td><td style="vertical-align:top;">:</td><td><div>datetime.datetime(2016, 3, 8, 19, 16, 10, 39100)</div></td></tr><tr><td style="font-weight:bold;vertical-align:top;">wsgi</td><td style="vertical-align:top;">:</td><td><div>&lt;gluon.main.LazyWSGI object at 0x7f6a3a020bd0&gt;</div></td></tr></table></div>'
tRp62
sS'frames'
p63
(lp64
(dp65
S'file'
p66
S'/home/Carlos/Documentos/web2py/gluon/restricted.py'
p67
sS'dump'
p68
(dp69
S'environment'
p70
S"{'A': <class 'gluon.html.A'>, 'ANY_OF': <class 'gluon.validators.ANY_OF'>, 'ASSIGNJS': <function ASSIGNJS>, 'AppConfig': <function AppConfig>, 'Auth': <class 'gluon.tools.Auth'>, 'B': <class 'gluon.html.B'>, 'BEAUTIFY': <class 'gluon.html.BEAUTIFY'>, 'BODY': <class 'gluon.html.BODY'>, 'BR': <class 'gluon.html.BR'>, 'BUTTON': <class 'gluon.html.BUTTON'>, ...}"
p71
sS'ccode'
p72
S'<code object <module> at 0x7f6a396e0a30, file "/...web2py/applications/datos/models/db1.py", line 3>'
p73
ssS'lnum'
p74
I227
sS'lines'
p75
(dp76
I224
S'            ccode = code'
p77
sI225
S'        else:'
p78
sI226
S'            ccode = compile2(code, layer)'
p79
sI227
S'        exec ccode in environment'
p80
sI228
S'    except HTTP:'
p81
sI229
S'        raise'
p82
sI230
S'    except RestrictedError:'
p83
sI231
S'        # do not encapsulate (obfuscate) the original RestrictedError'
p84
sI222
S'    try:'
p85
sI223
S'        if isinstance(code, types.CodeType):'
p86
ssS'call'
p87
S'(code="# -*- coding: utf-8 -*-\\n#Define DAL object, with...ter==request.vars.semester), \'group.cod_group\')]\\n", environment={\'A\': <class \'gluon.html.A\'>, \'ANY_OF\': <class \'gluon.validators.ANY_OF\'>, \'ASSIGNJS\': <function ASSIGNJS>, \'AppConfig\': <function AppConfig>, \'Auth\': <class \'gluon.tools.Auth\'>, \'B\': <class \'gluon.html.B\'>, \'BEAUTIFY\': <class \'gluon.html.BEAUTIFY\'>, \'BODY\': <class \'gluon.html.BODY\'>, \'BR\': <class \'gluon.html.BR\'>, \'BUTTON\': <class \'gluon.html.BUTTON\'>, ...}, layer=\'/home/Carlos/Documentos/web2py/applications/datos/models/db1.py\')'
p88
sS'func'
p89
S'restricted'
p90
sa(dp91
g66
S'/home/Carlos/Documentos/web2py/applications/datos/models/db1.py'
p92
sg68
(dp93
S'IS_NOT_EMPTY'
p94
S"<class 'gluon.validators.IS_NOT_EMPTY'>"
p95
sS'Field'
p96
S"<class 'pydal.objects.Field'>"
p97
sS'requires'
p98
S'undefined'
p99
ssg74
I58
sg75
(dp100
I53
S''
sI54
S"db1.define_table('group',"
p101
sI55
S"               Field('cod_group', 'integer', requires=IS_NOT_EMPTY()),"
p102
sI56
S"               Field('id_teacher','reference auth_user', label = T('Teacher'), requires=IS_IN_DB(db1,db1.auth_user.id, '%(name)s', zero = T('Select One'))),"
p103
sI57
S"               Field('cod_course','reference course'),"
p104
sI58
S"               Field('semester', 'string', requires=IS_NOT_EMPTY()))"
p105
sI59
S''
sI60
S'courses = db1(db1.group.cod_course==request.vars.cod_course)'
p106
sI61
S''
sI62
S"db1.group.cod_group.requires=[IS_NOT_IN_DB(courses(db1.group.semester==request.vars.semester), 'group.cod_group')]"
p107
ssg87
S'()'
p108
sg89
S'<module>'
p109
sa(dp110
g66
S'/home/Carlos/Documentos/web2py/gluon/packages/dal/pydal/base.py'
p111
sg68
(dp112
S'fields'
p113
S'(<pydal.objects.Field object>, <pydal.objects.Field object>, <pydal.objects.Field object>, <pydal.objects.Field object>)'
p114
sS'self'
p115
S'<DAL uri="postgres:******@localhost/base">'
p116
sS'args'
p117
g21
sS'tablename'
p118
S"'group'"
p119
sS'table'
p120
g99
sS'self.lazy_define_table'
p121
S'<bound method DAL.lazy_define_table of <DAL uri="postgres:******@localhost/base">>'
p122
ssg74
I834
sg75
(dp123
I832
S'            table = None'
p124
sI833
S'        else:'
p125
sI834
S'            table = self.lazy_define_table(tablename,*fields,**args)'
p126
sI835
S'        if not tablename in self.tables:'
p127
sI836
S'            self.tables.append(tablename)'
p128
sI837
S'        return table'
p129
sI838
S''
sI829
S'                    % (tablename,invalid_args))'
p130
sI830
S'        if self._lazy_tables and tablename not in self._LAZY_TABLES:'
p131
sI831
S'            self._LAZY_TABLES[tablename] = (tablename,fields,args)'
p132
ssg87
S'(self=<DAL uri="postgres:******@localhost/base">, tablename=\'group\', *fields=(<pydal.objects.Field object>, <pydal.objects.Field object>, <pydal.objects.Field object>, <pydal.objects.Field object>), **args={})'
p133
sg89
S'define_table'
p134
sa(dp135
g66
S'/home/Carlos/Documentos/web2py/gluon/packages/dal/pydal/base.py'
p136
sg68
(dp137
S'polymodel'
p138
S'None'
p139
ssg74
I873
sg75
(dp140
I868
S'            try:'
p141
sI869
S'                GLOBAL_LOCKER.acquire()'
p142
sI870
S'                self._lastsql = self._adapter.create_table('
p143
sI871
S'                    table,migrate=migrate,'
p144
sI872
S'                    fake_migrate=fake_migrate,'
p145
sI873
S'                    polymodel=polymodel)'
p146
sI874
S'            finally:'
p147
sI875
S'                GLOBAL_LOCKER.release()'
p148
sI876
S'        else:'
p149
sI877
S'            table._dbt = None'
p150
ssg87
S'(self=<DAL uri="postgres:******@localhost/base">, tablename=\'group\', *fields=(<pydal.objects.Field object>, <pydal.objects.Field object>, <pydal.objects.Field object>, <pydal.objects.Field object>), **args={})'
p151
sg89
S'lazy_define_table'
p152
sa(dp153
g66
S'/home/Carlos/Documentos/web2py/gluon/packages/dal/pydal/adapters/base.py'
p154
sg68
(dp155
S'query'
p156
S"'CREATE TABLE group(\\n    id SERIAL PRIMARY KEY,\\n ...ON DELETE CASCADE  ,\\n    semester VARCHAR(512)\\n);'"
p157
sS'self'
p158
S'<pydal.adapters.postgres.PostgreSQLAdapter object>'
p159
sS'table'
p160
S'<Table group (id,cod_group,id_teacher,cod_course,semester)>'
p161
sS'self.create_sequence_and_triggers'
p162
S'<bound method PostgreSQLAdapter.create_sequence_...ydal.adapters.postgres.PostgreSQLAdapter object>>'
p163
ssg74
I482
sg75
(dp164
I480
S'                            query), table)'
p165
sI481
S'            if not fake_migrate:'
p166
sI482
S'                self.create_sequence_and_triggers(query, table)'
p167
sI483
S'                db.commit()'
p168
sI484
S'                # Postgres geom fields are added now,'
p169
sI485
S'                # after the table has been created'
p170
sI486
S'                for query in postcreation_fields:'
p171
sI477
S'            if table._dbt:'
p172
sI478
S"                self.log('timestamp: %s\\n%s\\n'"
p173
sI479
S'                         % (datetime.datetime.today().isoformat(),'
p174
ssg87
S'(self=<pydal.adapters.postgres.PostgreSQLAdapter object>, table=<Table group (id,cod_group,id_teacher,cod_course,semester)>, migrate=True, fake_migrate=False, polymodel=None)'
p175
sg89
S'create_table'
p176
sa(dp177
g66
S'/home/Carlos/Documentos/web2py/gluon/packages/dal/pydal/adapters/postgres.py'
p178
sg68
(dp179
S'query'
p180
S"'CREATE TABLE group(\\n    id SERIAL PRIMARY KEY,\\n ...ON DELETE CASCADE  ,\\n    semester VARCHAR(512)\\n);'"
p181
sS'self'
p182
S'<pydal.adapters.postgres.PostgreSQLAdapter object>'
p183
sS'self.execute'
p184
S'<bound method PostgreSQLAdapter.execute of <pydal.adapters.postgres.PostgreSQLAdapter object>>'
p185
ssg74
I94
sg75
(dp186
I96
S"    REGEX_URI = re.compile('^(?P<user>[^:@]+)(\\:(?P<password>[^@]*))?@(?P<host>\\[[^/]+\\]|[^\\:@]+)(\\:(?P<port>[0-9]+))?/(?P<db>[^\\?]+)(\\?sslmode=(?P<sslmode>.+))?$')"
p187
sI97
S''
sI98
S"    def __init__(self, db,uri, pool_size=0, folder=None, db_codec ='UTF-8',"
p188
sI89
S'    def create_sequence_and_triggers(self, query, table, **args):'
p189
sI90
S'        # following lines should only be executed if table._sequence_name does not exist'
p190
sI91
S"        # self.execute('CREATE SEQUENCE %s;' % table._sequence_name)"
p191
sI92
S'        # self.execute("ALTER TABLE %s ALTER COLUMN %s SET DEFAULT NEXTVAL(\'%s\');" \\'
p192
sI93
S'        #              % (table._tablename, table._fieldname, table._sequence_name))'
p193
sI94
S'        self.execute(query)'
p194
sI95
S''
ssg87
S"(self=<pydal.adapters.postgres.PostgreSQLAdapter object>, query='CREATE TABLE group(\\n    id SERIAL PRIMARY KEY,\\n ...ON DELETE CASCADE  ,\\n    semester VARCHAR(512)\\n);', table=<Table group (id,cod_group,id_teacher,cod_course,semester)>, **args={})"
p195
sg89
S'create_sequence_and_triggers'
p196
sa(dp197
g66
S'/home/Carlos/Documentos/web2py/gluon/packages/dal/pydal/adapters/postgres.py'
p198
sg68
(dp199
S'a'
S"[u'CREATE TABLE group(\\n    id SERIAL PRIMARY KEY...DELETE CASCADE  ,\\n    semester VARCHAR(512)\\n);']"
p200
sS'self'
p201
S'<pydal.adapters.postgres.PostgreSQLAdapter object>'
p202
sS'b'
g21
sS'BaseAdapter.execute'
p203
S'<unbound method BaseAdapter.execute>'
p204
sS'global BaseAdapter'
p205
S"<class 'pydal.adapters.base.BaseAdapter'>"
p206
ssg74
I360
sg75
(dp207
I355
S''
sI356
S'    def execute(self, *a, **b):'
p208
sI357
S'        if PY2 and self.driver_name == "pg8000":'
p209
sI358
S'            a = list(a)'
p210
sI359
S"            a[0] = a[0].decode('utf8')"
p211
sI360
S'        return BaseAdapter.execute(self, *a, **b)'
p212
sI361
S''
sI362
S''
sI363
S'class NewPostgreSQLAdapter(PostgreSQLAdapter):'
p213
sI364
S"    drivers = ('psycopg2','pg8000')"
p214
ssg87
S"(self=<pydal.adapters.postgres.PostgreSQLAdapter object>, *a=[u'CREATE TABLE group(\\n    id SERIAL PRIMARY KEY...DELETE CASCADE  ,\\n    semester VARCHAR(512)\\n);'], **b={})"
p215
sg89
S'execute'
p216
sa(dp217
g66
S'/home/Carlos/Documentos/web2py/gluon/packages/dal/pydal/adapters/base.py'
p218
sg68
(dp219
S'a'
S"(u'CREATE TABLE group(\\n    id SERIAL PRIMARY KEY...DELETE CASCADE  ,\\n    semester VARCHAR(512)\\n);',)"
p220
sS'self'
p221
S'<pydal.adapters.postgres.PostgreSQLAdapter object>'
p222
sS'b'
g21
sS'self.log_execute'
p223
S'<bound method PostgreSQLAdapter.log_execute of <pydal.adapters.postgres.PostgreSQLAdapter object>>'
p224
ssg74
I1385
sg75
(dp225
I1380
S'        self.db._timings.append((command,time.time()-t0))'
p226
sI1381
S'        del self.db._timings[:-TIMINGSSIZE]'
p227
sI1382
S'        return ret'
p228
sI1383
S''
sI1384
S'    def execute(self, *a, **b):'
p229
sI1385
S'        return self.log_execute(*a, **b)'
p230
sI1386
S''
sI1387
S'    def execute_test_query(self):'
p231
sI1388
S'        return self.execute(self.test_query)'
p232
sI1389
S''
ssg87
S"(self=<pydal.adapters.postgres.PostgreSQLAdapter object>, *a=(u'CREATE TABLE group(\\n    id SERIAL PRIMARY KEY...DELETE CASCADE  ,\\n    semester VARCHAR(512)\\n);',), **b={})"
p233
sg89
g216
sa(dp234
g66
S'/home/Carlos/Documentos/web2py/gluon/packages/dal/pydal/adapters/base.py'
p235
sg68
(dp236
S'a'
S"(u'CREATE TABLE group(\\n    id SERIAL PRIMARY KEY...DELETE CASCADE  ,\\n    semester VARCHAR(512)\\n);',)"
p237
sS'b'
g21
sS'self'
p238
S'<pydal.adapters.postgres.PostgreSQLAdapter object>'
p239
sS'ret'
p240
g99
sS'command'
p241
S"u'CREATE TABLE group(\\n    id SERIAL PRIMARY KEY...DELETE CASCADE  ,\\n    semester VARCHAR(512)\\n);'"
p242
sS'self.get_cursor'
p243
S'<bound method PostgreSQLAdapter.get_cursor of <pydal.adapters.postgres.PostgreSQLAdapter object>>'
p244
sS').execute'
p245
g99
ssg74
I1379
sg75
(dp246
I1376
S"            self.db.logger.debug('SQL: %s' % command)"
p247
sI1377
S'        self.db._lastsql = command'
p248
sI1378
S'        t0 = time.time()'
p249
sI1379
S'        ret = self.get_cursor().execute(command, *a[1:], **b)'
p250
sI1380
S'        self.db._timings.append((command,time.time()-t0))'
p251
sI1381
S'        del self.db._timings[:-TIMINGSSIZE]'
p252
sI1382
S'        return ret'
p253
sI1383
S''
sI1374
S'            command = self.filter_sql_command(command)'
p254
sI1375
S'        if self.db._debug:'
p255
ssg87
S"(self=<pydal.adapters.postgres.PostgreSQLAdapter object>, *a=(u'CREATE TABLE group(\\n    id SERIAL PRIMARY KEY...DELETE CASCADE  ,\\n    semester VARCHAR(512)\\n);',), **b={})"
p256
sg89
S'log_execute'
p257
sa(dp258
g66
S'/home/Carlos/Documentos/web2py/gluon/contrib/pg8000/core.py'
p259
sg68
(dp260
S'self'
p261
S'<gluon.contrib.pg8000.core.Cursor instance>'
p262
sS'args'
p263
S'None'
p264
sS'self._c.execute'
p265
S'<bound method Connection.execute of <gluon.contrib.pg8000.core.Connection object>>'
p266
sS'self._c'
p267
S'<gluon.contrib.pg8000.core.Connection object>'
p268
sS'operation'
p269
S"u'CREATE TABLE group(\\n    id SERIAL PRIMARY KEY...DELETE CASCADE  ,\\n    semester VARCHAR(512)\\n);'"
p270
ssg74
I573
sg75
(dp271
I576
S'                raise InterfaceError("Cursor closed")'
p272
sI577
S'            elif self._c._sock is None:'
p273
sI568
S'            self._c._lock.acquire()'
p274
sI569
S'            self.stream = stream'
p275
sI570
S''
sI571
S'            if not self._c.in_transaction and not self._c.autocommit:'
p276
sI572
S'                self._c.execute(self, "begin transaction", None)'
p277
sI573
S'            self._c.execute(self, operation, args)'
p278
sI574
S'        except AttributeError:'
p279
sI575
S'            if self._c is None:'
p280
ssg87
S"(self=<gluon.contrib.pg8000.core.Cursor instance>, operation=u'CREATE TABLE group(\\n    id SERIAL PRIMARY KEY...DELETE CASCADE  ,\\n    semester VARCHAR(512)\\n);', args=None, stream=None)"
p281
sg89
g216
sa(dp282
g66
S'/home/Carlos/Documentos/web2py/gluon/contrib/pg8000/core.py'
p283
sg68
(dp284
S'cursor'
p285
S'<gluon.contrib.pg8000.core.Cursor instance>'
p286
sS'self.handle_messages'
p287
S'<bound method Connection.handle_messages of <gluon.contrib.pg8000.core.Connection object>>'
p288
sS'self'
p289
S'<gluon.contrib.pg8000.core.Connection object>'
p290
ssg74
I1626
sg75
(dp291
I1621
S'                if self._sock is None:'
p292
sI1622
S'                    raise InterfaceError("connection is closed")'
p293
sI1623
S'                else:'
p294
sI1624
S'                    raise exc_info()[1]'
p295
sI1625
S''
sI1626
S'            self.handle_messages(cursor)'
p296
sI1627
S''
sI1628
S"            # We've got row_desc that allows us to identify what we're"
p297
sI1629
S'            # going to get back from this statement.'
p298
sI1630
S'            output_fc = tuple('
p299
ssg87
S"(self=<gluon.contrib.pg8000.core.Connection object>, cursor=<gluon.contrib.pg8000.core.Cursor instance>, operation=u'CREATE TABLE group(\\n    id SERIAL PRIMARY KEY...DELETE CASCADE  ,\\n    semester VARCHAR(512)\\n);', vals=())"
p300
sg89
g216
sa(dp301
g66
S'/home/Carlos/Documentos/web2py/gluon/contrib/pg8000/core.py'
p302
sg68
(dp303
S'self'
p304
S'<gluon.contrib.pg8000.core.Connection object>'
p305
sS'self.error'
p306
S"ProgrammingError('ERROR', '42601', 'error de sintaxis en o cerca de \\xc2\\xabgroup\\xc2\\xbb')"
p307
ssg74
I1774
sg75
(dp308
I1769
S'        except:'
p309
sI1770
S'            self._close()'
p310
sI1771
S'            raise'
p311
sI1772
S''
sI1773
S'        if self.error is not None:'
p312
sI1774
S'            raise self.error'
p313
sI1775
S''
sI1776
S"    # Byte1('C') - Identifies the message as a close command."
p314
sI1777
S'    # Int32 - Message length, including self.'
p315
sI1778
S"    # Byte1 - 'S' for prepared statement, 'P' for portal."
p316
ssg87
S'(self=<gluon.contrib.pg8000.core.Connection object>, cursor=<gluon.contrib.pg8000.core.Cursor instance>)'
p317
sg89
S'handle_messages'
p318
sasS'pyver'
p319
S'Python 2.7.10: /usr/bin/python (prefix: /usr)'
p320
sS'session'
p321
g61
(S's9\x01\x00\x00<div><table><tr><td style="font-weight:bold;vertical-align:top;">last_orderby</td><td style="vertical-align:top;">:</td><td><div>None</div></td></tr><tr><td style="font-weight:bold;vertical-align:top;">last_query</td><td style="vertical-align:top;">:</td><td><div>db1.machine.id&gt;0</div></td></tr></table></div>'
tRp322
sS'etype'
p323
S"<class 'gluon.contrib.pg8000.ProgrammingError'>"
p324
sS'date'
p325
S'Tue Mar  8 14:16:10 2016'
p326
sS'response'
p327
g61
(S's\x00\x18\x00\x00<div><table><tr><td style="font-weight:bold;vertical-align:top;">body</td><td style="vertical-align:top;">:</td><td><div>&lt;cStringIO.StringO object at 0x7f6a581da810&gt;</div></td></tr><tr><td style="font-weight:bold;vertical-align:top;">cookies</td><td style="vertical-align:top;">:</td><td><div><table><tr><td style="font-weight:bold;vertical-align:top;">session_id_datos</td><td style="vertical-align:top;">:</td><td><div>127.0.0.1-df28f56d-adef-4198-8e13-a07e20d62fd1<table><tr><td style="font-weight:bold;vertical-align:top;">comment</td><td style="vertical-align:top;">:</td><td><div></div></td></tr><tr><td style="font-weight:bold;vertical-align:top;">domain</td><td style="vertical-align:top;">:</td><td><div></div></td></tr><tr><td style="font-weight:bold;vertical-align:top;">expires</td><td style="vertical-align:top;">:</td><td><div></div></td></tr><tr><td style="font-weight:bold;vertical-align:top;">httponly</td><td style="vertical-align:top;">:</td><td><div></div></td></tr><tr><td style="font-weight:bold;vertical-align:top;">max-age</td><td style="vertical-align:top;">:</td><td><div></div></td></tr><tr><td style="font-weight:bold;vertical-align:top;">path</td><td style="vertical-align:top;">:</td><td><div>/</div></td></tr><tr><td style="font-weight:bold;vertical-align:top;">secure</td><td style="vertical-align:top;">:</td><td><div></div></td></tr><tr><td style="font-weight:bold;vertical-align:top;">version</td><td style="vertical-align:top;">:</td><td><div></div></td></tr></table></div></td></tr></table></div></td></tr><tr><td style="font-weight:bold;vertical-align:top;">delimiters</td><td style="vertical-align:top;">:</td><td><div><table><tr><td><div>{{</div></td></tr><tr><td><div>}}</div></td></tr></table></div></td></tr><tr><td style="font-weight:bold;vertical-align:top;">files</td><td style="vertical-align:top;">:</td><td><div><table></table></div></td></tr><tr><td style="font-weight:bold;vertical-align:top;">flash</td><td style="vertical-align:top;">:</td><td><div></div></td></tr><tr><td style="font-weight:bold;vertical-align:top;">form_label_separator</td><td style="vertical-align:top;">:</td><td><div></div></td></tr><tr><td style="font-weight:bold;vertical-align:top;">formstyle</td><td style="vertical-align:top;">:</td><td><div>bootstrap3_inline</div></td></tr><tr><td style="font-weight:bold;vertical-align:top;">generic_patterns</td><td style="vertical-align:top;">:</td><td><div><table><tr><td><div>*</div></td></tr></table></div></td></tr><tr><td style="font-weight:bold;vertical-align:top;">headers</td><td style="vertical-align:top;">:</td><td><div><table><tr><td style="font-weight:bold;vertical-align:top;">X-Powered-By</td><td style="vertical-align:top;">:</td><td><div>web2py</div></td></tr></table></div></td></tr><tr><td style="font-weight:bold;vertical-align:top;">menu</td><td style="vertical-align:top;">:</td><td><div><table></table></div></td></tr><tr><td style="font-weight:bold;vertical-align:top;">meta</td><td style="vertical-align:top;">:</td><td><div><table></table></div></td></tr><tr><td style="font-weight:bold;vertical-align:top;">models_to_run</td><td style="vertical-align:top;">:</td><td><div><table><tr><td><div>^\\w+\\.py$</div></td></tr><tr><td><div>^appadmin/\\w+\\.py$</div></td></tr><tr><td><div>^appadmin/hooks/\\w+\\.py$</div></td></tr></table></div></td></tr><tr><td style="font-weight:bold;vertical-align:top;">postprocessing</td><td style="vertical-align:top;">:</td><td><div><table></table></div></td></tr><tr><td style="font-weight:bold;vertical-align:top;">session_client</td><td style="vertical-align:top;">:</td><td><div>127.0.0.1</div></td></tr><tr><td style="font-weight:bold;vertical-align:top;">session_cookie_compression_level</td><td style="vertical-align:top;">:</td><td><div>None</div></td></tr><tr><td style="font-weight:bold;vertical-align:top;">session_cookie_expires</td><td style="vertical-align:top;">:</td><td><div>None</div></td></tr><tr><td style="font-weight:bold;vertical-align:top;">session_cookie_key</td><td style="vertical-align:top;">:</td><td><div>None</div></td></tr><tr><td style="font-weight:bold;vertical-align:top;">session_data_name</td><td style="vertical-align:top;">:</td><td><div>session_data_datos</div></td></tr><tr><td style="font-weight:bold;vertical-align:top;">session_file</td><td style="vertical-align:top;">:</td><td><div>&lt;open file &#x27;/home/Carlos/Documentos/web2py/applications/datos/sessions/0f9/0f1/127.0.0.1-df28f56d-adef-4198-8e13-a07e20d62fd1&#x27;, mode &#x27;rb+&#x27; at 0x7f6a5835c030&gt;</div></td></tr><tr><td style="font-weight:bold;vertical-align:top;">session_filename</td><td style="vertical-align:top;">:</td><td><div>/home/Carlos/Documentos/web2py/applications/datos/sessions/127.0.0.1-df28f56d-adef-4198-8e13-a07e20d62fd1</div></td></tr><tr><td style="font-weight:bold;vertical-align:top;">session_hash</td><td style="vertical-align:top;">:</td><td><div>d84b54bf872af4ebe2f57080d294fcfd</div></td></tr><tr><td style="font-weight:bold;vertical-align:top;">session_id</td><td style="vertical-align:top;">:</td><td><div>127.0.0.1-df28f56d-adef-4198-8e13-a07e20d62fd1</div></td></tr><tr><td style="font-weight:bold;vertical-align:top;">session_id_name</td><td style="vertical-align:top;">:</td><td><div>session_id_datos</div></td></tr><tr><td style="font-weight:bold;vertical-align:top;">session_locked</td><td style="vertical-align:top;">:</td><td><div>True</div></td></tr><tr><td style="font-weight:bold;vertical-align:top;">session_masterapp</td><td style="vertical-align:top;">:</td><td><div>datos</div></td></tr><tr><td style="font-weight:bold;vertical-align:top;">session_new</td><td style="vertical-align:top;">:</td><td><div>False</div></td></tr><tr><td style="font-weight:bold;vertical-align:top;">session_storage_type</td><td style="vertical-align:top;">:</td><td><div>file</div></td></tr><tr><td style="font-weight:bold;vertical-align:top;">status</td><td style="vertical-align:top;">:</td><td><div>200</div></td></tr><tr><td style="font-weight:bold;vertical-align:top;">view</td><td style="vertical-align:top;">:</td><td><div>appadmin/hooks.html</div></td></tr></table></div>'
tRp328
sS'locals'
p329
(dp330
S'cursor'
p331
S'<gluon.contrib.pg8000.core.Cursor instance>'
p332
sS'self'
p333
S'<gluon.contrib.pg8000.core.Connection object>'
p334
sg6
S"'Z'"
p335
sS'data_len'
p336
S'5'
sssS'traceback'
p337
S'Traceback (most recent call last):\n  File "/home/Carlos/Documentos/web2py/gluon/restricted.py", line 227, in restricted\n    exec ccode in environment\n  File "/home/Carlos/Documentos/web2py/applications/datos/models/db1.py", line 58, in <module>\n    Field(\'semester\', \'string\', requires=IS_NOT_EMPTY()))\n  File "/home/Carlos/Documentos/web2py/gluon/packages/dal/pydal/base.py", line 834, in define_table\n    table = self.lazy_define_table(tablename,*fields,**args)\n  File "/home/Carlos/Documentos/web2py/gluon/packages/dal/pydal/base.py", line 873, in lazy_define_table\n    polymodel=polymodel)\n  File "/home/Carlos/Documentos/web2py/gluon/packages/dal/pydal/adapters/base.py", line 482, in create_table\n    self.create_sequence_and_triggers(query, table)\n  File "/home/Carlos/Documentos/web2py/gluon/packages/dal/pydal/adapters/postgres.py", line 94, in create_sequence_and_triggers\n    self.execute(query)\n  File "/home/Carlos/Documentos/web2py/gluon/packages/dal/pydal/adapters/postgres.py", line 360, in execute\n    return BaseAdapter.execute(self, *a, **b)\n  File "/home/Carlos/Documentos/web2py/gluon/packages/dal/pydal/adapters/base.py", line 1385, in execute\n    return self.log_execute(*a, **b)\n  File "/home/Carlos/Documentos/web2py/gluon/packages/dal/pydal/adapters/base.py", line 1379, in log_execute\n    ret = self.get_cursor().execute(command, *a[1:], **b)\n  File "/home/Carlos/Documentos/web2py/gluon/contrib/pg8000/core.py", line 573, in execute\n    self._c.execute(self, operation, args)\n  File "/home/Carlos/Documentos/web2py/gluon/contrib/pg8000/core.py", line 1626, in execute\n    self.handle_messages(cursor)\n  File "/home/Carlos/Documentos/web2py/gluon/contrib/pg8000/core.py", line 1774, in handle_messages\n    raise self.error\nProgrammingError: (\'ERROR\', \'42601\', \'error de sintaxis en o cerca de \\xc2\\xabgroup\\xc2\\xbb\')\n'
p338
s.