(dp1
S'output'
p2
S"<type 'exceptions.NameError'> global name 'ips' is not defined"
p3
sS'layer'
p4
S'/home/camilo/Escritorio/repo_git/web2py/applications/datos/controllers/maquinas.py'
p5
sS'code'
p6
S'# -*- coding: utf-8 -*-\n# intente algo como\nimport os\n\ndef index():\n    cabezas = ["ip_machine", "code_course", "operative_system", "memory", "processor"]\n    filas =  db1((db1.machine.ip_machine)).select(\n        db1.machine.ip_machine, db1.machine.code_course, db1.machine.operative_system,db1.machine.memory,db1.machine.processor\n    )\n    acciones = [T("Restart"),T("Add user")]\n    return locals()\n\ndef configurar():\n    ids = request.vars["id"]\n    #query = /......\n    filas =  db1((db1.machine.ip_machine)).select(\n        db1.machine.ip_machine\n        #, db1.machine.operative_system\n    )\n\n    ips = []\n    for i in ids:\n        entero = int(i)-1\n        ips.append( filas[entero]["ip_machine"] )\n\n    indentificador = auth.user_id\n    nombres = db1(db1.auth_user.id == indentificador).select(db1.auth_user.first_name, db1.auth_user.last_name)\n    \n    nombre = "Ansible/" + nombres[0]["first_name"] + "_" + nombres[0]["last_name"]\n    archivo = open(os.path.join(request.folder, \'private\', nombre), \'w\')\n    \n    for ip in ips:\n        archivo.write(ip + "\\n")\n        pass\n     \n    #crear formulario segun\n    opciones = [T("Restart"), T("Test")]\n\n     # seleccion = SELECT(\n    \n    # )\n    test = SELECT(*opciones, **dict(_name="my_selector"))\n    #tests = SELECT(\'<hello>\', XML(\'<b>world</b>\'), _class=\'test\', _id=0)\n    redirect(  URL(\'maquinas\', \'ejecutar\', vars=dict(ip=ips))  )\n    \ndef mostrar():\n    grid = SQLFORM.grid(db1.machine,\n                        #query = asdasdasdasdasads\n                       selectable = lambda ids : redirect(URL(\'maquinas\', \'configurar\', vars=dict(id=ids))),\n                        csv=False, editable=False, deletable=False\n                       )\n    return locals()\n\ndef ejecutar():\n    \n    redirect(URL(\'maquinas\', \'mostrar\', vars=dict(ips=ips)))\n\nresponse._vars=response._caller(ejecutar)\n'
p7
sS'snapshot'
p8
(dp9
sS'traceback'
p10
S'Traceback (most recent call last):\n  File "/home/camilo/Escritorio/repo_git/web2py/gluon/restricted.py", line 227, in restricted\n    exec ccode in environment\n  File "/home/camilo/Escritorio/repo_git/web2py/applications/datos/controllers/maquinas.py", line 58, in <module>\n  File "/home/camilo/Escritorio/repo_git/web2py/gluon/globals.py", line 415, in <lambda>\n    self._caller = lambda f: f()\n  File "/home/camilo/Escritorio/repo_git/web2py/applications/datos/controllers/maquinas.py", line 56, in ejecutar\n    redirect(URL(\'maquinas\', \'mostrar\', vars=dict(ips=ips)))\nNameError: global name \'ips\' is not defined\n'
p11
s.