(dp1
S'output'
p2
S"<type 'exceptions.KeyError'> 'services'"
p3
sS'layer'
p4
S'/home/camilo/Escritorio/repo_git/proyecto_mv/applications/datos/views/tasks/resumen.html'
p5
sS'code'
p6
S'response.write(\'<!DOCTYPE html>\\n<!--[if (gt IE 9)|!(IE)]><!--> <html class="no-js" lang="\', escape=False)\nresponse.write(T.accepted_language or \'en\')\nresponse.write(\'"> <!--<![endif]-->\\n  <head>\\n    <meta charset="utf-8">\\n    <!-- www.phpied.com/conditional-comments-block-downloads/ -->\\n    <!-- Always force latest IE rendering engine\\n         (even in intranet) & Chrome Frame\\n         Remove this if you use the .htaccess -->\\n    <meta http-equiv="X-UA-Compatible" content="IE=edge\', escape=False)\nresponse.write(not request.is_local and \',chrome=1\' or \'\')\nresponse.write(\'">\\n    <!--  Mobile Viewport Fix\\n          j.mp/mobileviewport & davidbcalhoun.com/2010/viewport-metatag\\n          device-width: Occupy full width of the screen in its current orientation\\n          initial-scale = 1.0 retains dimensions instead of zooming out if page height > device height\\n          user-scalable = yes allows the user to zoom in -->\\n    <meta name="viewport" content="width=device-width, initial-scale=1.0">\\n    <title>\', escape=False)\nresponse.write(response.title or request.application)\nresponse.write(\'</title>\\n    <!-- http://dev.w3.org/html5/markup/meta.name.html -->\\n    <meta name="application-name" content="\', escape=False)\nresponse.write(request.application)\nresponse.write(\'">\\n    <!-- Speaking of Google, don\\\'t forget to set your site up:\\n         http://google.com/webmasters -->\\n    <meta name="google-site-verification" content="">\\n    <!-- include stylesheets -->\\n    <link rel="stylesheet" href="\', escape=False)\nresponse.write(URL(\'static\',\'css/bootstrap.min.css\'))\nresponse.write(\'"/>\\n    <link rel="stylesheet" href="\', escape=False)\nresponse.write(URL(\'static\',\'css/web2py-bootstrap3.css\'))\nresponse.write(\'"/>\\n    <link rel="shortcut icon" href="\', escape=False)\nresponse.write(URL(\'static\',\'images/favicon.ico\'))\nresponse.write(\'" type="image/x-icon">\\n    <link rel="apple-touch-icon" href="\', escape=False)\nresponse.write(URL(\'static\',\'images/favicon.png\'))\nresponse.write(\'">\\n    <!-- All JavaScript at the bottom, except for Modernizr which enables\\n         HTML5 elements & feature detects -->\\n    <script src="\', escape=False)\nresponse.write(URL(\'static\',\'js/modernizr-2.8.3.min.js\'))\nresponse.write(\'"></script>\\n    <!--[if lt IE 9]>\\n        <script src="\', escape=False)\nresponse.write(URL(\'static\',\'js/respond-1.4.2.min.js\'))\nresponse.write(\'"></script>\\n        <![endif]-->\\n    <!-- Favicons -->\\n    \', escape=False)\nresponse.write(\'<script type="text/javascript"><!--\\n    // These variables are used by the web2py_ajax_init function in web2py_ajax.js (which is loaded below).\\n    var w2p_ajax_confirm_message = "\', escape=False)\nresponse.write(T(\'Are you sure you want to delete this object?\'))\nresponse.write(\'";\\n    var w2p_ajax_disable_with_message = "\', escape=False)\nresponse.write(T(\'Working...\'))\nresponse.write(\'";\\n    var w2p_ajax_date_format = "\', escape=False)\nresponse.write(T(\'%Y-%m-%d\'))\nresponse.write(\'";\\n    var w2p_ajax_datetime_format = "\', escape=False)\nresponse.write(T(\'%Y-%m-%d %H:%M:%S\'))\nresponse.write(\'";\\n    var ajax_error_500 = \\\'\', escape=False)\nresponse.write(T.M(\'An error occured, please [[reload %s]] the page\') % URL(args=request.args, vars=request.get_vars))\nresponse.write("\'\\n    //--></script>\\n", escape=False)\nresponse.files.insert(0,URL(\'static\',\'js/jquery.js\'))\nresponse.files.insert(1,URL(\'static\',\'css/calendar.css\'))\nresponse.files.insert(2,URL(\'static\',\'js/calendar.js\'))\nresponse.files.insert(3,URL(\'static\',\'js/web2py.js\'))\nresponse.include_meta()\nresponse.include_files()\nresponse.write(\'\\n\', escape=False)\nresponse.write(\' <!-- this includes jquery.js, calendar.js/.css and web2py.js -->\\n    \', escape=False)\nresponse.write(\'\\n    \', escape=False)\n# using sidebars need to know what sidebar you want to use\nmc0 = \'col-md-12\'\nmc1 = \'col-md-9\'\nmc2 = \'col-md-6\'\nleft_sidebar_enabled = globals().get(\'left_sidebar_enabled\', False)\nright_sidebar_enabled = globals().get(\'right_sidebar_enabled\', False)\nmiddle_column = {0: mc0, 1: mc1, 2: mc2}[\n(left_sidebar_enabled and 1 or 0)+(right_sidebar_enabled and 1 or 0)]\nresponse.write(\'\\n  </head>\\n  <body>\\n    <!--[if lt IE 8]><p class="browserupgrade">You are using an <strong>outdated</strong> browser. Please <a href="http://browsehappy.com/">upgrade your browser</a> to improve your experience.</p><![endif]-->\\n    <div class="w2p_flash alert alert-dismissable">\', escape=False)\nresponse.write(response.flash or \'\')\nresponse.write(\'</div>\\n    <!-- Navbar ======================================= -->\\n    <nav class="navbar navbar-default navbar-fixed-top" role="navigation">\\n      <div class="container-fluid">\\n        <div class="navbar-header">\\n          <button type="button" class="navbar-toggle" data-toggle="collapse" data-target=".navbar-collapse">\\n            <span class="sr-only">Toggle navigation</span>\\n            <span class="icon-bar"></span>\\n            <span class="icon-bar"></span>\\n            <span class="icon-bar"></span>\\n          </button>\\n          \', escape=False)\nresponse.write(response.logo or \'\')\nresponse.write(\'\\n        </div>\\n        <div class="collapse navbar-collapse navbar-ex1-collapse">\\n          <ul class="nav navbar-nav navbar-right">\\n            \', escape=False)\nresponse.write(\'auth\' in globals() and auth.navbar(\'Welcome\',mode=\'dropdown\') or \'\')\nresponse.write(\'\\n          </ul>\\n          \', escape=False)\nif response.menu:\n    response.write(\'\\n          \', escape=False)\n    response.write(MENU(response.menu, _class=\'nav navbar-nav\',li_class=\'dropdown\',ul_class=\'dropdown-menu\'))\n    response.write(\'\\n          \', escape=False)\n    pass\nresponse.write(\'\\n        </div>\\n      </div>\\n    </nav>\\n    <!-- Masthead ===================================== -->    \\n    \', escape=False)\nresponse.write(\'\\n    \', escape=False)\nresponse.write(\'\\n    <!-- Main ========================================= -->\\n    <!-- Begin page content -->\\n    <div class="container-fluid main-container">\\n      \', escape=False)\nif left_sidebar_enabled:\n    response.write(\'\\n        <div class="col-md-3 left-sidebar">\\n            \', escape=False)\n    response.write(\'\\n            <h3>Left Sidebar</h3>\\n            <p></p>\\n            \', escape=False)\n    response.write(\'\\n        </div>\\n      \', escape=False)\n    pass\nresponse.write(\'\\n\\n      <div class="\', escape=False)\nresponse.write(middle_column)\nresponse.write(\'">\\n        \', escape=False)\nresponse.write(\'\\n        \', escape=False)\nresponse.write(\'\\n\\n<div class="modal-header">\\n        <button type="button" class="close" data-dismiss="modal" aria-label="Close"><span aria-hidden="true">&times;</span></button>\\n        <h1 class="modal-title">Tarea \', escape=False)\nresponse.write(job_name)\nresponse.write(\'</h1>\\n</div>\\n\\n\\n<div class="modal-body">\\n    <h3>\\n        \', escape=False)\nresponse.write(texto_summary)\nresponse.write(\'\\n    </h3>\\n    \', escape=False)\nresponse.write(grid)\nresponse.write(\'\\n    <br>\\n    <h3>\\n        \', escape=False)\nresponse.write(texto_summary_per_host)\nresponse.write(\'\\n    </h3>\\n    \\n    <table class="table table-hover">\\n        <thead>\\n          <tr>\\n            <th>IP</th>\\n            <th>OK</th>\\n            <th>Changed</th>\\n            <th>Unreachable</th>\\n            <th>Failed</th>\\n          </tr>\\n        </thead>\\n        \', escape=False)\nif existe_resumen == T(\'Yes\'):\n    response.write(\'\\n        <tbody>\\n            \', escape=False)\n    for pareja in resultados:\n        response.write(\'\\n            <tr>\\n                <td>\', escape=False)\n        response.write(pareja[0])\n        response.write(\'</td>\\n                <th>\', escape=False)\n        response.write(pareja[1]["ok"])\n        response.write(\'</th>\\n                <th>\', escape=False)\n        response.write(pareja[1]["changed"])\n        response.write(\'</th>\\n                <th>\', escape=False)\n        response.write(pareja[1]["unreachable"])\n        response.write(\'</th>\\n                <th>\', escape=False)\n        response.write(pareja[1]["failed"])\n        response.write(\'</th>\\n          </tr>\\n          \', escape=False)\n        pass\n    response.write(\'\\n        </tbody>\\n        \', escape=False)\nelse:\n    response.write(\'\\n            <tr>\\n                <td>\', escape=False)\n    response.write(resultados)\n    response.write(\'</td>\\n            </tr>\\n    \', escape=False)\n    pass\nresponse.write(\'\\n    </table> <! Fin del resumen por maquina -->\\n    \\n    \\n    <br>\\n    <h3>\\n        \', escape=False)\nresponse.write(texto_vars)\nresponse.write(\'\\n    </h3>\\n    \\n    <table class="table table-hover">\\n        <thead>\\n          <tr>\\n            <th>Variable</th>\\n            <th>Valor</th>\\n          </tr>\\n        </thead>\\n        \', escape=False)\nif variables != dict():\n    response.write(\'\\n        <tbody>\\n            \', escape=False)\n    for campo in variables:\n        response.write(\'\\n            <tr>\\n                <td>\', escape=False)\n        response.write(diccionario[campo])\n        response.write(\'</td>\\n                <th>\', escape=False)\n        response.write(variables[campo])\n        response.write(\'</th>\\n          </tr>\\n          \', escape=False)\n        pass\n    response.write(\'\\n        </tbody>\\n        \', escape=False)\nelse:\n    response.write(\'\\n            <tr>\\n                <td>\', escape=False)\n    response.write(T("There were no variables set for this job"))\n    response.write(\'</td>\\n            </tr>\\n    \', escape=False)\n    pass\nresponse.write(\'\\n    </table>\\n</div>\\n\\n\\n\', escape=False)\nif debug != dict():\n    response.write(\'\\n <br>\\n    <h3>\\n        \', escape=False)\n    response.write(T("Job Output"))\n    response.write(\'\\n    </h3>\\n    \', escape=False)\n    for ip in datos:\n        response.write(\'\\n        <div class="panel panel-success" id="system">\\n            <div class="panel-heading">\\n                <h2 class="panel-title">\', escape=False)\n        response.write(ip)\n        response.write(\'</h2>\\n            </div>\\n            <div class="panel-body">\\n                 <table class="table table-hover">\\n                    <thead>\\n                      <tr>\\n                        \', escape=False)\n        for cabeza in cabezas:\n            response.write(\'\\n                          <th>\', escape=False)\n            response.write(cabeza)\n            response.write(\'</th>\\n                        \', escape=False)\n            pass\n        response.write(\'\\n                      </tr>\\n                    </thead>\\n                     \\n                     \', escape=False)\n        lineas = datos[ip]\n        response.write(\'\\n                    <tbody>\\n                        \', escape=False)\n        for linea in lineas:\n            response.write(\'\\n                        <tr>\\n                            \', escape=False)\n            for campo in linea:\n                response.write(\'\\n                                <td>\', escape=False)\n                response.write(campo)\n                response.write(\'</td>\\n                            \', escape=False)\n                pass\n            response.write(\'\\n                        </tr>\\n                        \', escape=False)\n            pass\n        response.write(\'\\n                    </tbody>\\n                \', escape=False)\n        #pass\n        response.write(\'\\n                </table>\\n            </div>            \\n        </div>\\n    \', escape=False)\n        pass\n    response.write(\'\\n\\n\', escape=False)\n    pass\nresponse.write(\'\\n\\n\\n\\n<div class="modal-footer">\\n    \', escape=False)\nresponse.write(boton_volver)\nresponse.write(\'\\n    \', escape=False)\nresponse.write(boton_descargar)\nresponse.write(\'\\n</div>\\n\', escape=False)\n#=BEAUTIFY(response._vars)\nresponse.write(\'\\n\', escape=False)\nresponse.write(\'\\n        \', escape=False)\nresponse.write(\'\\n      </div>\\n\\n      \', escape=False)\nif right_sidebar_enabled:\n    response.write(\'\\n        <div class="col-md-3">\\n            \', escape=False)\n    response.write(\'\\n            <h3>Right Sidebar</h3>\\n            <p></p>\\n            \', escape=False)\n    response.write(\'\\n        </div>\\n      \', escape=False)\n    pass\nresponse.write(\'\\n\\n    </div>\\n\\n    \', escape=False)\nresponse.write(\' <!-- this is default footer -->      \\n    <footer class="footer">\\n      <div class="container-fluid">\\n        <div class="copyright pull-left">\', escape=False)\nresponse.write(T(\'Copyright\'))\nresponse.write(\' &#169; \', escape=False)\nresponse.write(request.now.year)\nresponse.write(\'</div>\\n          <div id="poweredBy" class="pull-right">\\n            \', escape=False)\nresponse.write(T(\'Powered by\'))\nresponse.write(\'\\n            <a href="http://www.web2py.com/">web2py</a>\\n          </div>\\n      </div>\\n    </footer>\\n    \', escape=False)\nresponse.write(\'\\n      \\n      \\n    <!-- The javascript =============================== -->\\n    <script src="\', escape=False)\nresponse.write(URL(\'static\',\'js/bootstrap.min.js\'))\nresponse.write(\'"></script>\\n    <script src="\', escape=False)\nresponse.write(URL(\'static\',\'js/web2py-bootstrap3.js\'))\nresponse.write(\'"></script>\\n    \', escape=False)\nresponse.write(\'\\n    \', escape=False)\nif response.google_analytics_id:\n    response.write(\'\\n    <!-- Analytics ==================================== -->\\n    <script src="\', escape=False)\n    response.write(URL(\'static\',\'js/analytics.min.js\'))\n    response.write(\'"></script>\\n    <script type="text/javascript">\\n      analytics.initialize({\\n      \\\'Google Analytics\\\':{trackingId:\\\'\', escape=False)\n    response.write(response.google_analytics_id)\n    response.write("\'}\\n      });\\n    </script>\\n    ", escape=False)\n    pass\nresponse.write(\'\\n    <!-- Share ============================y============ -->\\n    <script src="\', escape=False)\nresponse.write(URL(\'static\',\'js/share.js\',vars=dict(static=URL(\'static\',\'images\'))))\nresponse.write(\'"></script>\\n  </body>\\n</html>\\n\', escape=False)'
p7
sS'snapshot'
p8
(dp9
S'exception'
p10
(dp11
S'__hash__'
p12
S"<method-wrapper '__hash__' of exceptions.KeyError object>"
p13
sS'__setattr__'
p14
S"<method-wrapper '__setattr__' of exceptions.KeyError object>"
p15
sS'__reduce_ex__'
p16
S'<built-in method __reduce_ex__ of exceptions.KeyError object>'
p17
sS'__getslice__'
p18
S"<method-wrapper '__getslice__' of exceptions.KeyError object>"
p19
sS'__getitem__'
p20
S"<method-wrapper '__getitem__' of exceptions.KeyError object>"
p21
sS'__setstate__'
p22
S'<built-in method __setstate__ of exceptions.KeyError object>'
p23
sS'args'
p24
S"('services',)"
p25
sS'__reduce__'
p26
S'<built-in method __reduce__ of exceptions.KeyError object>'
p27
sS'__str__'
p28
S"<method-wrapper '__str__' of exceptions.KeyError object>"
p29
sS'__format__'
p30
S'<built-in method __format__ of exceptions.KeyError object>'
p31
sS'__getattribute__'
p32
S"<method-wrapper '__getattribute__' of exceptions.KeyError object>"
p33
sS'__class__'
p34
S"<type 'exceptions.KeyError'>"
p35
sS'__unicode__'
p36
S'<built-in method __unicode__ of exceptions.KeyError object>'
p37
sS'__delattr__'
p38
S"<method-wrapper '__delattr__' of exceptions.KeyError object>"
p39
sS'__subclasshook__'
p40
S'<built-in method __subclasshook__ of type object>'
p41
sS'__repr__'
p42
S"<method-wrapper '__repr__' of exceptions.KeyError object>"
p43
sS'__dict__'
p44
S'{}'
p45
sS'__sizeof__'
p46
S'<built-in method __sizeof__ of exceptions.KeyError object>'
p47
sS'__doc__'
p48
S"'Mapping key not found.'"
p49
sS'__init__'
p50
S"<method-wrapper '__init__' of exceptions.KeyError object>"
p51
sS'__new__'
p52
S'<built-in method __new__ of type object>'
p53
ssS'evalue'
p54
S"'services'"
p55
sS'request'
p56
cgluon.html
XML_unpickle
p57
(S'sj:\x00\x00<div><table><tr><td style="font-weight:bold;vertical-align:top;">ajax</td><td style="vertical-align:top;">:</td><td><div>False</div></td></tr><tr><td style="font-weight:bold;vertical-align:top;">application</td><td style="vertical-align:top;">:</td><td><div>datos</div></td></tr><tr><td style="font-weight:bold;vertical-align:top;">args</td><td style="vertical-align:top;">:</td><td><div><table><tr><td><div>2_138</div></td></tr></table></div></td></tr><tr><td style="font-weight:bold;vertical-align:top;">cid</td><td style="vertical-align:top;">:</td><td><div>None</div></td></tr><tr><td style="font-weight:bold;vertical-align:top;">client</td><td style="vertical-align:top;">:</td><td><div>127.0.0.1</div></td></tr><tr><td style="font-weight:bold;vertical-align:top;">controller</td><td style="vertical-align:top;">:</td><td><div>tasks</div></td></tr><tr><td style="font-weight:bold;vertical-align:top;">cookies</td><td style="vertical-align:top;">:</td><td><div><table><tr><td style="font-weight:bold;vertical-align:top;">session_id_admin</td><td style="vertical-align:top;">:</td><td><div>127.0.0.1-a1b6601d-ff1a-4a84-9a81-787d5ae26f37<table><tr><td style="font-weight:bold;vertical-align:top;">comment</td><td style="vertical-align:top;">:</td><td><div></div></td></tr><tr><td style="font-weight:bold;vertical-align:top;">domain</td><td style="vertical-align:top;">:</td><td><div></div></td></tr><tr><td style="font-weight:bold;vertical-align:top;">expires</td><td style="vertical-align:top;">:</td><td><div></div></td></tr><tr><td style="font-weight:bold;vertical-align:top;">httponly</td><td style="vertical-align:top;">:</td><td><div></div></td></tr><tr><td style="font-weight:bold;vertical-align:top;">max-age</td><td style="vertical-align:top;">:</td><td><div></div></td></tr><tr><td style="font-weight:bold;vertical-align:top;">path</td><td style="vertical-align:top;">:</td><td><div></div></td></tr><tr><td style="font-weight:bold;vertical-align:top;">secure</td><td style="vertical-align:top;">:</td><td><div></div></td></tr><tr><td style="font-weight:bold;vertical-align:top;">version</td><td style="vertical-align:top;">:</td><td><div></div></td></tr></table></div></td></tr><tr><td style="font-weight:bold;vertical-align:top;">session_id_datos</td><td style="vertical-align:top;">:</td><td><div>127.0.0.1-f2948e7f-9814-46d8-a44d-669d1e8e37dd<table><tr><td style="font-weight:bold;vertical-align:top;">comment</td><td style="vertical-align:top;">:</td><td><div></div></td></tr><tr><td style="font-weight:bold;vertical-align:top;">domain</td><td style="vertical-align:top;">:</td><td><div></div></td></tr><tr><td style="font-weight:bold;vertical-align:top;">expires</td><td style="vertical-align:top;">:</td><td><div></div></td></tr><tr><td style="font-weight:bold;vertical-align:top;">httponly</td><td style="vertical-align:top;">:</td><td><div></div></td></tr><tr><td style="font-weight:bold;vertical-align:top;">max-age</td><td style="vertical-align:top;">:</td><td><div></div></td></tr><tr><td style="font-weight:bold;vertical-align:top;">path</td><td style="vertical-align:top;">:</td><td><div></div></td></tr><tr><td style="font-weight:bold;vertical-align:top;">secure</td><td style="vertical-align:top;">:</td><td><div></div></td></tr><tr><td style="font-weight:bold;vertical-align:top;">version</td><td style="vertical-align:top;">:</td><td><div></div></td></tr></table></div></td></tr></table></div></td></tr><tr><td style="font-weight:bold;vertical-align:top;">env</td><td style="vertical-align:top;">:</td><td><div><table><tr><td style="font-weight:bold;vertical-align:top;">HTTP_ACCEPT</td><td style="vertical-align:top;">:</td><td><div>text/html,application/xhtml+xml,application/xml;q=0.9,*/*;q=0.8</div></td></tr><tr><td style="font-weight:bold;vertical-align:top;">HTTP_ACCEPT_ENCODING</td><td style="vertical-align:top;">:</td><td><div>gzip, deflate</div></td></tr><tr><td style="font-weight:bold;vertical-align:top;">HTTP_ACCEPT_LANGUAGE</td><td style="vertical-align:top;">:</td><td><div>es-CL,es;q=0.8,en-US;q=0.5,en;q=0.3</div></td></tr><tr><td style="font-weight:bold;vertical-align:top;">HTTP_CACHE_CONTROL</td><td style="vertical-align:top;">:</td><td><div>max-age=0</div></td></tr><tr><td style="font-weight:bold;vertical-align:top;">HTTP_CONNECTION</td><td style="vertical-align:top;">:</td><td><div>keep-alive</div></td></tr><tr><td style="font-weight:bold;vertical-align:top;">HTTP_COOKIE</td><td style="vertical-align:top;">:</td><td><div>session_id_datos=127.0.0.1-f2948e7f-9814-46d8-a44d-669d1e8e37dd; session_id_admin=127.0.0.1-a1b6601d-ff1a-4a84-9a81-787d5ae26f37</div></td></tr><tr><td style="font-weight:bold;vertical-align:top;">HTTP_HOST</td><td style="vertical-align:top;">:</td><td><div>127.0.0.1:3000</div></td></tr><tr><td style="font-weight:bold;vertical-align:top;">HTTP_REFERER</td><td style="vertical-align:top;">:</td><td><div>http://127.0.0.1:3000/datos/tasks/index?page=7</div></td></tr><tr><td style="font-weight:bold;vertical-align:top;">HTTP_USER_AGENT</td><td style="vertical-align:top;">:</td><td><div>Mozilla/5.0 (X11; Ubuntu; Linux x86_64; rv:44.0) Gecko/20100101 Firefox/44.0</div></td></tr><tr><td style="font-weight:bold;vertical-align:top;">PATH_INFO</td><td style="vertical-align:top;">:</td><td><div>/datos/tasks/resumen/2_138</div></td></tr><tr><td style="font-weight:bold;vertical-align:top;">QUERY_STRING</td><td style="vertical-align:top;">:</td><td><div></div></td></tr><tr><td style="font-weight:bold;vertical-align:top;">REMOTE_ADDR</td><td style="vertical-align:top;">:</td><td><div>127.0.0.1</div></td></tr><tr><td style="font-weight:bold;vertical-align:top;">REMOTE_PORT</td><td style="vertical-align:top;">:</td><td><div>50070</div></td></tr><tr><td style="font-weight:bold;vertical-align:top;">REQUEST_METHOD</td><td style="vertical-align:top;">:</td><td><div>GET</div></td></tr><tr><td style="font-weight:bold;vertical-align:top;">SCRIPT_NAME</td><td style="vertical-align:top;">:</td><td><div></div></td></tr><tr><td style="font-weight:bold;vertical-align:top;">SERVER_NAME</td><td style="vertical-align:top;">:</td><td><div>camilo-GX70-3CC</div></td></tr><tr><td style="font-weight:bold;vertical-align:top;">SERVER_PORT</td><td style="vertical-align:top;">:</td><td><div>3000</div></td></tr><tr><td style="font-weight:bold;vertical-align:top;">SERVER_PROTOCOL</td><td style="vertical-align:top;">:</td><td><div>HTTP/1.1</div></td></tr><tr><td style="font-weight:bold;vertical-align:top;">SERVER_SOFTWARE</td><td style="vertical-align:top;">:</td><td><div>Rocket 1.2.6</div></td></tr><tr><td style="font-weight:bold;vertical-align:top;">http_accept</td><td style="vertical-align:top;">:</td><td><div>text/html,application/xhtml+xml,application/xml;q=0.9,*/*;q=0.8</div></td></tr><tr><td style="font-weight:bold;vertical-align:top;">http_accept_encoding</td><td style="vertical-align:top;">:</td><td><div>gzip, deflate</div></td></tr><tr><td style="font-weight:bold;vertical-align:top;">http_accept_language</td><td style="vertical-align:top;">:</td><td><div>es-CL,es;q=0.8,en-US;q=0.5,en;q=0.3</div></td></tr><tr><td style="font-weight:bold;vertical-align:top;">http_cache_control</td><td style="vertical-align:top;">:</td><td><div>max-age=0</div></td></tr><tr><td style="font-weight:bold;vertical-align:top;">http_connection</td><td style="vertical-align:top;">:</td><td><div>keep-alive</div></td></tr><tr><td style="font-weight:bold;vertical-align:top;">http_cookie</td><td style="vertical-align:top;">:</td><td><div>session_id_datos=127.0.0.1-f2948e7f-9814-46d8-a44d-669d1e8e37dd; session_id_admin=127.0.0.1-a1b6601d-ff1a-4a84-9a81-787d5ae26f37</div></td></tr><tr><td style="font-weight:bold;vertical-align:top;">http_host</td><td style="vertical-align:top;">:</td><td><div>127.0.0.1:3000</div></td></tr><tr><td style="font-weight:bold;vertical-align:top;">http_referer</td><td style="vertical-align:top;">:</td><td><div>http://127.0.0.1:3000/datos/tasks/index?page=7</div></td></tr><tr><td style="font-weight:bold;vertical-align:top;">http_user_agent</td><td style="vertical-align:top;">:</td><td><div>Mozilla/5.0 (X11; Ubuntu; Linux x86_64; rv:44.0) Gecko/20100101 Firefox/44.0</div></td></tr><tr><td style="font-weight:bold;vertical-align:top;">path_info</td><td style="vertical-align:top;">:</td><td><div>/datos/tasks/resumen/2_138</div></td></tr><tr><td style="font-weight:bold;vertical-align:top;">query_string</td><td style="vertical-align:top;">:</td><td><div></div></td></tr><tr><td style="font-weight:bold;vertical-align:top;">remote_addr</td><td style="vertical-align:top;">:</td><td><div>127.0.0.1</div></td></tr><tr><td style="font-weight:bold;vertical-align:top;">remote_port</td><td style="vertical-align:top;">:</td><td><div>50070</div></td></tr><tr><td style="font-weight:bold;vertical-align:top;">request_method</td><td style="vertical-align:top;">:</td><td><div>GET</div></td></tr><tr><td style="font-weight:bold;vertical-align:top;">request_uri</td><td style="vertical-align:top;">:</td><td><div>/datos/tasks/resumen/2_138</div></td></tr><tr><td style="font-weight:bold;vertical-align:top;">script_name</td><td style="vertical-align:top;">:</td><td><div></div></td></tr><tr><td style="font-weight:bold;vertical-align:top;">server_name</td><td style="vertical-align:top;">:</td><td><div>camilo-GX70-3CC</div></td></tr><tr><td style="font-weight:bold;vertical-align:top;">server_port</td><td style="vertical-align:top;">:</td><td><div>3000</div></td></tr><tr><td style="font-weight:bold;vertical-align:top;">server_protocol</td><td style="vertical-align:top;">:</td><td><div>HTTP/1.1</div></td></tr><tr><td style="font-weight:bold;vertical-align:top;">server_software</td><td style="vertical-align:top;">:</td><td><div>Rocket 1.2.6</div></td></tr><tr><td style="font-weight:bold;vertical-align:top;">web2py_path</td><td style="vertical-align:top;">:</td><td><div>/home/camilo/Escritorio/repo_git/proyecto_mv</div></td></tr><tr><td style="font-weight:bold;vertical-align:top;">web2py_version</td><td style="vertical-align:top;">:</td><td><div>2.13.4-stable+timestamp.2016.02.10.15.41.11</div></td></tr><tr><td style="font-weight:bold;vertical-align:top;">wsgi.errors</td><td style="vertical-align:top;">:</td><td><div>&lt;open file &#x27;&lt;stderr&gt;&#x27;, mode &#x27;w&#x27; at 0x7f885b55b1e0&gt;</div></td></tr><tr><td style="font-weight:bold;vertical-align:top;">wsgi.file_wrapper</td><td style="vertical-align:top;">:</td><td><div>&lt;class wsgiref.util.FileWrapper at 0x7f885665bc18&gt;</div></td></tr><tr><td style="font-weight:bold;vertical-align:top;">wsgi.input</td><td style="vertical-align:top;">:</td><td><div>&lt;socket._fileobject object at 0x7f88566eebd0&gt;</div></td></tr><tr><td style="font-weight:bold;vertical-align:top;">wsgi.multiprocess</td><td style="vertical-align:top;">:</td><td><div>False</div></td></tr><tr><td style="font-weight:bold;vertical-align:top;">wsgi.multithread</td><td style="vertical-align:top;">:</td><td><div>True</div></td></tr><tr><td style="font-weight:bold;vertical-align:top;">wsgi.run_once</td><td style="vertical-align:top;">:</td><td><div>False</div></td></tr><tr><td style="font-weight:bold;vertical-align:top;">wsgi.url_scheme</td><td style="vertical-align:top;">:</td><td><div>http</div></td></tr><tr><td style="font-weight:bold;vertical-align:top;">wsgi.version</td><td style="vertical-align:top;">:</td><td><div><table><tr><td><div>1</div></td></tr><tr><td><div>0</div></td></tr></table></div></td></tr><tr><td style="font-weight:bold;vertical-align:top;">wsgi_errors</td><td style="vertical-align:top;">:</td><td><div>&lt;open file &#x27;&lt;stderr&gt;&#x27;, mode &#x27;w&#x27; at 0x7f885b55b1e0&gt;</div></td></tr><tr><td style="font-weight:bold;vertical-align:top;">wsgi_file_wrapper</td><td style="vertical-align:top;">:</td><td><div>&lt;class wsgiref.util.FileWrapper at 0x7f885665bc18&gt;</div></td></tr><tr><td style="font-weight:bold;vertical-align:top;">wsgi_input</td><td style="vertical-align:top;">:</td><td><div>&lt;socket._fileobject object at 0x7f88566eebd0&gt;</div></td></tr><tr><td style="font-weight:bold;vertical-align:top;">wsgi_multiprocess</td><td style="vertical-align:top;">:</td><td><div>False</div></td></tr><tr><td style="font-weight:bold;vertical-align:top;">wsgi_multithread</td><td style="vertical-align:top;">:</td><td><div>True</div></td></tr><tr><td style="font-weight:bold;vertical-align:top;">wsgi_run_once</td><td style="vertical-align:top;">:</td><td><div>False</div></td></tr><tr><td style="font-weight:bold;vertical-align:top;">wsgi_url_scheme</td><td style="vertical-align:top;">:</td><td><div>http</div></td></tr><tr><td style="font-weight:bold;vertical-align:top;">wsgi_version</td><td style="vertical-align:top;">:</td><td><div><table><tr><td><div>1</div></td></tr><tr><td><div>0</div></td></tr></table></div></td></tr></table></div></td></tr><tr><td style="font-weight:bold;vertical-align:top;">extension</td><td style="vertical-align:top;">:</td><td><div>html</div></td></tr><tr><td style="font-weight:bold;vertical-align:top;">folder</td><td style="vertical-align:top;">:</td><td><div>/home/camilo/Escritorio/repo_git/proyecto_mv/applications/datos/</div></td></tr><tr><td style="font-weight:bold;vertical-align:top;">function</td><td style="vertical-align:top;">:</td><td><div>resumen</div></td></tr><tr><td style="font-weight:bold;vertical-align:top;">is_https</td><td style="vertical-align:top;">:</td><td><div>False</div></td></tr><tr><td style="font-weight:bold;vertical-align:top;">is_local</td><td style="vertical-align:top;">:</td><td><div>True</div></td></tr><tr><td style="font-weight:bold;vertical-align:top;">is_restful</td><td style="vertical-align:top;">:</td><td><div>False</div></td></tr><tr><td style="font-weight:bold;vertical-align:top;">is_scheduler</td><td style="vertical-align:top;">:</td><td><div>False</div></td></tr><tr><td style="font-weight:bold;vertical-align:top;">is_shell</td><td style="vertical-align:top;">:</td><td><div>False</div></td></tr><tr><td style="font-weight:bold;vertical-align:top;">now</td><td style="vertical-align:top;">:</td><td><div>datetime.datetime(2016, 6, 29, 20, 25, 4, 199078)</div></td></tr><tr><td style="font-weight:bold;vertical-align:top;">raw_args</td><td style="vertical-align:top;">:</td><td><div>2_138</div></td></tr><tr><td style="font-weight:bold;vertical-align:top;">raw_extension</td><td style="vertical-align:top;">:</td><td><div>None</div></td></tr><tr><td style="font-weight:bold;vertical-align:top;">url</td><td style="vertical-align:top;">:</td><td><div>/datos/tasks/resumen/2_138</div></td></tr><tr><td style="font-weight:bold;vertical-align:top;">utcnow</td><td style="vertical-align:top;">:</td><td><div>datetime.datetime(2016, 6, 30, 1, 25, 4, 199113)</div></td></tr><tr><td style="font-weight:bold;vertical-align:top;">wsgi</td><td style="vertical-align:top;">:</td><td><div>&lt;gluon.main.LazyWSGI object at 0x7f8854155e50&gt;</div></td></tr></table></div>'
tRp58
sS'frames'
p59
(lp60
(dp61
S'file'
p62
S'/home/camilo/Escritorio/repo_git/proyecto_mv/gluon/restricted.py'
p63
sS'dump'
p64
(dp65
S'environment'
p66
S"{'A': <class 'gluon.html.A'>, 'ANY_OF': <class 'gluon.validators.ANY_OF'>, 'ASSIGNJS': <function ASSIGNJS>, 'AppConfig': <function AppConfig>, 'Auth': <class 'gluon.tools.Auth'>, 'B': <class 'gluon.html.B'>, 'BEAUTIFY': <class 'gluon.html.BEAUTIFY'>, 'BODY': <class 'gluon.html.BODY'>, 'BR': <class 'gluon.html.BR'>, 'BUTTON': <class 'gluon.html.BUTTON'>, ...}"
p67
sS'ccode'
p68
S'<code object <module> at 0x7f8821cae830, file "/...ications/datos/views/tasks/resumen.html", line 1>'
p69
ssS'lnum'
p70
I227
sS'lines'
p71
(dp72
I224
S'            ccode = code'
p73
sI225
S'        else:'
p74
sI226
S'            ccode = compile2(code, layer)'
p75
sI227
S'        exec ccode in environment'
p76
sI228
S'    except HTTP:'
p77
sI229
S'        raise'
p78
sI230
S'    except RestrictedError:'
p79
sI231
S'        # do not encapsulate (obfuscate) the original RestrictedError'
p80
sI222
S'    try:'
p81
sI223
S'        if isinstance(code, types.CodeType):'
p82
ssS'call'
p83
S'(code=\'response.write(\\\'<!DOCTYPE html>\\\\n<!--[if (gt IE ..."></script>\\\\n  </body>\\\\n</html>\\\\n\\\', escape=False)\', environment={\'A\': <class \'gluon.html.A\'>, \'ANY_OF\': <class \'gluon.validators.ANY_OF\'>, \'ASSIGNJS\': <function ASSIGNJS>, \'AppConfig\': <function AppConfig>, \'Auth\': <class \'gluon.tools.Auth\'>, \'B\': <class \'gluon.html.B\'>, \'BEAUTIFY\': <class \'gluon.html.BEAUTIFY\'>, \'BODY\': <class \'gluon.html.BODY\'>, \'BR\': <class \'gluon.html.BR\'>, \'BUTTON\': <class \'gluon.html.BUTTON\'>, ...}, layer=\'/home/camilo/Escritorio/repo_git/proyecto_mv/applications/datos/views/tasks/resumen.html\')'
p84
sS'func'
p85
S'restricted'
p86
sa(dp87
g62
S'/home/camilo/Escritorio/repo_git/proyecto_mv/applications/datos/views/tasks/resumen.html'
p88
sg64
(dp89
S'div'
p90
S'undefined'
p91
ssg70
I111
sg71
(dp92
I102
S"    response.write('</td>\\n            </tr>\\n    ', escape=False)"
p93
sI103
S'    pass'
p94
sI104
S"response.write('\\n    </table> <! Fin del resumen por maquina -->\\n    \\n    \\n    <br>\\n    <h3>\\n        ', escape=False)"
p95
sI105
S'response.write(texto_vars)'
p96
sI106
S'response.write(\'\\n    </h3>\\n    \\n    <table class="table table-hover">\\n        <thead>\\n          <tr>\\n            <th>Variable</th>\\n            <th>Valor</th>\\n          </tr>\\n        </thead>\\n        \', escape=False)'
p97
sI107
S'if variables != dict():'
p98
sI108
S"    response.write('\\n        <tbody>\\n            ', escape=False)"
p99
sI109
S'    for campo in variables:'
p100
sI110
S"        response.write('\\n            <tr>\\n                <td>', escape=False)"
p101
sI111
S'        response.write(diccionario[campo])'
p102
sI112
S"        response.write('</td>\\n                <th>', escape=False)"
p103
sI113
S'        response.write(variables[campo])'
p104
sI114
S"        response.write('</th>\\n          </tr>\\n          ', escape=False)"
p105
sI115
S'        pass'
p106
sI116
S"    response.write('\\n        </tbody>\\n        ', escape=False)"
p107
sI117
S'else:'
p108
sI118
S"    response.write('\\n            <tr>\\n                <td>', escape=False)"
p109
sI119
S'    response.write(T("There were no variables set for this job"))'
p110
sI120
S"    response.write('</td>\\n            </tr>\\n    ', escape=False)"
p111
sI121
S'    pass'
p112
ssg83
S'()'
p113
sg85
S'<module>'
p114
sasS'pyver'
p115
S'Python 2.7.9: /usr/bin/python (prefix: /usr)'
p116
sS'session'
p117
g57
(S's\xca\t\x00\x00<div><table><tr><td style="font-weight:bold;vertical-align:top;">ACTIONS</td><td style="vertical-align:top;">:</td><td><div><table><tr><td><div>Reiniciar</div></td></tr><tr><td><div>Agregar usuario</div></td></tr></table></div></td></tr><tr><td style="font-weight:bold;vertical-align:top;">auth</td><td style="vertical-align:top;">:</td><td><div><table><tr><td style="font-weight:bold;vertical-align:top;">expiration</td><td style="vertical-align:top;">:</td><td><div>3600</div></td></tr><tr><td style="font-weight:bold;vertical-align:top;">hmac_key</td><td style="vertical-align:top;">:</td><td><div>f5b787cf-9c2a-4e46-aa14-3ec9e8c02305</div></td></tr><tr><td style="font-weight:bold;vertical-align:top;">last_visit</td><td style="vertical-align:top;">:</td><td><div>datetime.datetime(2016, 6, 29, 20, 24, 18, 220302)</div></td></tr><tr><td style="font-weight:bold;vertical-align:top;">remember_me</td><td style="vertical-align:top;">:</td><td><div>False</div></td></tr><tr><td style="font-weight:bold;vertical-align:top;">user</td><td style="vertical-align:top;">:</td><td><div><table><tr><td style="font-weight:bold;vertical-align:top;">email</td><td style="vertical-align:top;">:</td><td><div>profe@correo.com</div></td></tr><tr><td style="font-weight:bold;vertical-align:top;">first_name</td><td style="vertical-align:top;">:</td><td><div>profe1</div></td></tr><tr><td style="font-weight:bold;vertical-align:top;">id</td><td style="vertical-align:top;">:</td><td><div>2L</div></td></tr><tr><td style="font-weight:bold;vertical-align:top;">last_name</td><td style="vertical-align:top;">:</td><td><div>test1</div></td></tr><tr><td style="font-weight:bold;vertical-align:top;">registration_id</td><td style="vertical-align:top;">:</td><td><div></div></td></tr><tr><td style="font-weight:bold;vertical-align:top;">registration_key</td><td style="vertical-align:top;">:</td><td><div></div></td></tr><tr><td style="font-weight:bold;vertical-align:top;">reset_password_key</td><td style="vertical-align:top;">:</td><td><div></div></td></tr></table></div></td></tr><tr><td style="font-weight:bold;vertical-align:top;">user_groups</td><td style="vertical-align:top;">:</td><td><div><table><tr><td style="font-weight:bold;vertical-align:top;">2</td><td style="vertical-align:top;">:</td><td><div>Docente</div></td></tr></table></div></td></tr></table></div></td></tr><tr><td style="font-weight:bold;vertical-align:top;">flash</td><td style="vertical-align:top;">:</td><td><div>None</div></td></tr></table></div>'
tRp118
sS'etype'
p119
S"<type 'exceptions.KeyError'>"
p120
sS'date'
p121
S'Wed Jun 29 20:25:04 2016'
p122
sS'response'
p123
g57
(S's\xbb\'\x00\x00<div><table><tr><td style="font-weight:bold;vertical-align:top;">body</td><td style="vertical-align:top;">:</td><td><div>&lt;cStringIO.StringO object at 0x7f8856aab420&gt;</div></td></tr><tr><td style="font-weight:bold;vertical-align:top;">cookies</td><td style="vertical-align:top;">:</td><td><div><table><tr><td style="font-weight:bold;vertical-align:top;">session_id_datos</td><td style="vertical-align:top;">:</td><td><div>127.0.0.1-f2948e7f-9814-46d8-a44d-669d1e8e37dd<table><tr><td style="font-weight:bold;vertical-align:top;">comment</td><td style="vertical-align:top;">:</td><td><div></div></td></tr><tr><td style="font-weight:bold;vertical-align:top;">domain</td><td style="vertical-align:top;">:</td><td><div></div></td></tr><tr><td style="font-weight:bold;vertical-align:top;">expires</td><td style="vertical-align:top;">:</td><td><div></div></td></tr><tr><td style="font-weight:bold;vertical-align:top;">httponly</td><td style="vertical-align:top;">:</td><td><div></div></td></tr><tr><td style="font-weight:bold;vertical-align:top;">max-age</td><td style="vertical-align:top;">:</td><td><div></div></td></tr><tr><td style="font-weight:bold;vertical-align:top;">path</td><td style="vertical-align:top;">:</td><td><div>/</div></td></tr><tr><td style="font-weight:bold;vertical-align:top;">secure</td><td style="vertical-align:top;">:</td><td><div></div></td></tr><tr><td style="font-weight:bold;vertical-align:top;">version</td><td style="vertical-align:top;">:</td><td><div></div></td></tr></table></div></td></tr></table></div></td></tr><tr><td style="font-weight:bold;vertical-align:top;">delimiters</td><td style="vertical-align:top;">:</td><td><div><table><tr><td><div>{{</div></td></tr><tr><td><div>}}</div></td></tr></table></div></td></tr><tr><td style="font-weight:bold;vertical-align:top;">files</td><td style="vertical-align:top;">:</td><td><div><table><tr><td><div>/datos/static/js/jquery.js</div></td></tr><tr><td><div>/datos/static/css/calendar.css</div></td></tr><tr><td><div>/datos/static/js/calendar.js</div></td></tr><tr><td><div>/datos/static/js/web2py.js</div></td></tr></table></div></td></tr><tr><td style="font-weight:bold;vertical-align:top;">flash</td><td style="vertical-align:top;">:</td><td><div></div></td></tr><tr><td style="font-weight:bold;vertical-align:top;">form_label_separator</td><td style="vertical-align:top;">:</td><td><div></div></td></tr><tr><td style="font-weight:bold;vertical-align:top;">formstyle</td><td style="vertical-align:top;">:</td><td><div>bootstrap3_inline</div></td></tr><tr><td style="font-weight:bold;vertical-align:top;">generic_patterns</td><td style="vertical-align:top;">:</td><td><div><table><tr><td><div>*</div></td></tr></table></div></td></tr><tr><td style="font-weight:bold;vertical-align:top;">google_analytics_id</td><td style="vertical-align:top;">:</td><td><div>None</div></td></tr><tr><td style="font-weight:bold;vertical-align:top;">headers</td><td style="vertical-align:top;">:</td><td><div><table><tr><td style="font-weight:bold;vertical-align:top;">X-Powered-By</td><td style="vertical-align:top;">:</td><td><div>web2py</div></td></tr></table></div></td></tr><tr><td style="font-weight:bold;vertical-align:top;">logo</td><td style="vertical-align:top;">:</td><td><div><a class="navbar-brand" href="/datos/default/index" id="pmv_logo"><b>VM-UD</b>&trade;&nbsp;</a></div></td></tr><tr><td style="font-weight:bold;vertical-align:top;">menu</td><td style="vertical-align:top;">:</td><td><div><table><tr><td><div><table><tr><td><div>Inicio</div></td></tr><tr><td><div>False</div></td></tr><tr><td><div>/datos/default/index</div></td></tr><tr><td><div><table></table></div></td></tr></table></div></td></tr><tr><td><div><table><tr><td><div>Cursos</div></td></tr><tr><td><div>False</div></td></tr><tr><td><div>#</div></td></tr><tr><td><div><table><tr><td><div><table><tr><td><div>Objetos 1</div></td></tr><tr><td><div>False</div></td></tr><tr><td><div>/datos/default/show_couxuser/2</div></td></tr></table></div></td></tr></table></div></td></tr></table></div></td></tr><tr><td><div><table><tr><td><div>Equipos</div></td></tr><tr><td><div>False</div></td></tr><tr><td><div>#</div></td></tr><tr><td><div><table><tr><td><div><table><tr><td><div>192.168.0.105</div></td></tr><tr><td><div>False</div></td></tr><tr><td><div>/datos/default/mostrar_macxuser/11/2</div></td></tr></table></div></td></tr><tr><td><div><table><tr><td><div>192.168.0.106</div></td></tr><tr><td><div>False</div></td></tr><tr><td><div>/datos/default/mostrar_macxuser/14/2</div></td></tr></table></div></td></tr></table></div></td></tr></table></div></td></tr><tr><td><div><table><tr><td><div>Comandos</div></td></tr><tr><td><div>False</div></td></tr><tr><td><div>#</div></td></tr><tr><td><div><table><tr><td><div><table><tr><td><div>Usuarios</div></td></tr><tr><td><div>False</div></td></tr><tr><td><div>/datos/commands/users</div></td></tr></table></div></td></tr><tr><td><div><table><tr><td><div>Sistema</div></td></tr><tr><td><div>False</div></td></tr><tr><td><div>/datos/commands/system</div></td></tr></table></div></td></tr><tr><td><div><table><tr><td><div>Archivos</div></td></tr><tr><td><div>False</div></td></tr><tr><td><div>/datos/commands/files</div></td></tr></table></div></td></tr></table></div></td></tr></table></div></td></tr><tr><td><div><table><tr><td><div>Consultar</div></td></tr><tr><td><div>False</div></td></tr><tr><td><div>#</div></td></tr><tr><td><div><table><tr><td><div><table><tr><td><div>Archivos</div></td></tr><tr><td><div>False</div></td></tr><tr><td><div>/datos/default/list_files</div></td></tr></table></div></td></tr><tr><td><div><table><tr><td><div>Mis tareas</div></td></tr><tr><td><div>False</div></td></tr><tr><td><div>/datos/tasks/index</div></td></tr></table></div></td></tr><tr><td><div><table><tr><td><div>Servicios</div></td></tr><tr><td><div>False</div></td></tr><tr><td><div>/datos/consult/machines</div></td></tr></table></div></td></tr></table></div></td></tr></table></div></td></tr></table></div></td></tr><tr><td style="font-weight:bold;vertical-align:top;">meta</td><td style="vertical-align:top;">:</td><td><div><table><tr><td style="font-weight:bold;vertical-align:top;">author</td><td style="vertical-align:top;">:</td><td><div>Carlos  &lt;suarezsilvestre1@gmail.com&gt; Camilo &lt;urrego@outlook.com&gt;</div></td></tr><tr><td style="font-weight:bold;vertical-align:top;">description</td><td style="vertical-align:top;">:</td><td><div>a cool new app</div></td></tr><tr><td style="font-weight:bold;vertical-align:top;">generator</td><td style="vertical-align:top;">:</td><td><div>Web2py Web Framework</div></td></tr><tr><td style="font-weight:bold;vertical-align:top;">keywords</td><td style="vertical-align:top;">:</td><td><div>web2py, python, framework</div></td></tr></table></div></td></tr><tr><td style="font-weight:bold;vertical-align:top;">models_to_run</td><td style="vertical-align:top;">:</td><td><div><table><tr><td><div>^\\w+\\.py$</div></td></tr><tr><td><div>^tasks/\\w+\\.py$</div></td></tr><tr><td><div>^tasks/resumen/\\w+\\.py$</div></td></tr></table></div></td></tr><tr><td style="font-weight:bold;vertical-align:top;">postprocessing</td><td style="vertical-align:top;">:</td><td><div><table></table></div></td></tr><tr><td style="font-weight:bold;vertical-align:top;">session_client</td><td style="vertical-align:top;">:</td><td><div>127.0.0.1</div></td></tr><tr><td style="font-weight:bold;vertical-align:top;">session_cookie_compression_level</td><td style="vertical-align:top;">:</td><td><div>None</div></td></tr><tr><td style="font-weight:bold;vertical-align:top;">session_cookie_expires</td><td style="vertical-align:top;">:</td><td><div>None</div></td></tr><tr><td style="font-weight:bold;vertical-align:top;">session_cookie_key</td><td style="vertical-align:top;">:</td><td><div>None</div></td></tr><tr><td style="font-weight:bold;vertical-align:top;">session_data_name</td><td style="vertical-align:top;">:</td><td><div>session_data_datos</div></td></tr><tr><td style="font-weight:bold;vertical-align:top;">session_file</td><td style="vertical-align:top;">:</td><td><div>&lt;open file &#x27;/home/camilo/Escritorio/repo_git/proyecto_mv/applications/datos/sessions/1a5/1d4/127.0.0.1-f2948e7f-9814-46d8-a44d-669d1e8e37dd&#x27;, mode &#x27;rb+&#x27; at 0x7f8856691930&gt;</div></td></tr><tr><td style="font-weight:bold;vertical-align:top;">session_filename</td><td style="vertical-align:top;">:</td><td><div>/home/camilo/Escritorio/repo_git/proyecto_mv/applications/datos/sessions/127.0.0.1-f2948e7f-9814-46d8-a44d-669d1e8e37dd</div></td></tr><tr><td style="font-weight:bold;vertical-align:top;">session_hash</td><td style="vertical-align:top;">:</td><td><div>2da0d064abfda6213fc5b7c47ba21958</div></td></tr><tr><td style="font-weight:bold;vertical-align:top;">session_id</td><td style="vertical-align:top;">:</td><td><div>127.0.0.1-f2948e7f-9814-46d8-a44d-669d1e8e37dd</div></td></tr><tr><td style="font-weight:bold;vertical-align:top;">session_id_name</td><td style="vertical-align:top;">:</td><td><div>session_id_datos</div></td></tr><tr><td style="font-weight:bold;vertical-align:top;">session_locked</td><td style="vertical-align:top;">:</td><td><div>True</div></td></tr><tr><td style="font-weight:bold;vertical-align:top;">session_masterapp</td><td style="vertical-align:top;">:</td><td><div>datos</div></td></tr><tr><td style="font-weight:bold;vertical-align:top;">session_new</td><td style="vertical-align:top;">:</td><td><div>False</div></td></tr><tr><td style="font-weight:bold;vertical-align:top;">session_storage_type</td><td style="vertical-align:top;">:</td><td><div>file</div></td></tr><tr><td style="font-weight:bold;vertical-align:top;">status</td><td style="vertical-align:top;">:</td><td><div>200</div></td></tr><tr><td style="font-weight:bold;vertical-align:top;">subtitle</td><td style="vertical-align:top;">:</td><td><div></div></td></tr><tr><td style="font-weight:bold;vertical-align:top;">title</td><td style="vertical-align:top;">:</td><td><div>Datos</div></td></tr><tr><td style="font-weight:bold;vertical-align:top;">view</td><td style="vertical-align:top;">:</td><td><div>tasks/resumen.html</div></td></tr></table></div>'
tRp124
sS'locals'
p125
(dp126
S'Service'
p127
S"<class 'gluon.tools.Service'>"
p128
sS'OBJECT'
p129
S"<class 'gluon.html.OBJECT'>"
p130
sS'SQLDB'
p131
S"<class 'pydal.base.DAL'>"
p132
sg117
S"<Storage {'_auth_next': None, 'flash': None, '_f...gin]': ['d8e7316c-8d2d-4ce1-b472-0c9c5e4dda1f']}>"
p133
sS'LINK'
p134
S"<class 'gluon.html.LINK'>"
p135
sS'playbook'
p136
S'<function playbook>'
p137
sS'BR'
p138
S"<class 'gluon.html.BR'>"
p139
sS'local_import'
p140
S'<function <lambda>>'
p141
sS'OPTGROUP'
p142
S"<class 'gluon.html.OPTGROUP'>"
p143
sS'__package__'
p144
S'None'
p145
sS'PROCESSOR'
p146
S"['1', '2', '3', '4', '5', '6', '7', '8', '9', '10', <lazyT 'Other'>]"
p147
sS'row'
p148
S"<Row {'group_id': 2L, 'user_id': 2L, 'id': 3L}>"
p149
sS'PRE'
p150
S"<class 'gluon.html.PRE'>"
p151
sS'IS_INT_IN_RANGE'
p152
S"<class 'gluon.validators.IS_INT_IN_RANGE'>"
p153
sS'buscar_tarea_debug'
p154
S'<function buscar_tarea_debug>'
p155
sS'IS_LOWER'
p156
S"<class 'gluon.validators.IS_LOWER'>"
p157
sS'IS_STRONG'
p158
S"<class 'gluon.validators.IS_STRONG'>"
p159
sS'cache'
p160
S'<gluon.cache.Cache object>'
p161
sS'IS_IN_DB'
p162
S"<class 'gluon.validators.IS_IN_DB'>"
p163
sS'RAM_MEMORY'
p164
S"['512MB', '1024MB', '2048MB', '3072MB', '4096MB', '5120MB', '6144MB', '7168MB', '8192MB', '9216MB', '10240MB', <lazyT 'Other MB'>]"
p165
sS'yaml'
p166
S"<module 'yaml' from '/usr/lib/python2.7/dist-packages/yaml/__init__.pyc'>"
p167
sS'TAG'
p168
S'<gluon.html.__TAG__ object>'
p169
sS'Scheduler'
p170
S"<class 'gluon.scheduler.Scheduler'>"
p171
sS'SQLField'
p172
S"<class 'pydal.objects.Field'>"
p173
sS'mail'
p174
S'<gluon.tools.Mail object>'
p175
sS'job_name'
p176
S"'2_138'"
p177
sS'BODY'
p178
S"<class 'gluon.html.BODY'>"
p179
sS'IS_DATE_IN_RANGE'
p180
S"<class 'gluon.validators.IS_DATE_IN_RANGE'>"
p181
sS'IFRAME'
p182
S"<class 'gluon.html.IFRAME'>"
p183
sS'URL'
p184
S'<function URL>'
p185
sS'__file__'
p186
S"'/home/camilo/Escritorio/repo_git/proyecto_mv/applications/datos/views/tasks/resumen.html'"
p187
sS'auth'
p188
S'<gluon.tools.Auth object>'
p189
sS'P'
S"<class 'gluon.html.P'>"
p190
sS'grid'
p191
S'<gluon.html.DIV object>'
p192
sS'TFOOT'
p193
S"<class 'gluon.html.TFOOT'>"
p194
sS'scheduler'
p195
S'<Scheduler(Thread-308, initial daemon)>'
p196
sS'db1'
p197
S'<DAL uri="postgres:******@localhost/proyecto2">'
p198
sS'XHTML'
p199
S"<class 'gluon.html.XHTML'>"
p200
sS'subprocess'
p201
S"<module 'subprocess' from '/usr/lib/python2.7/subprocess.pyc'>"
p202
sS'existe_resumen'
p203
S"<lazyT 'Yes'>"
p204
sS'ON'
p205
S'True'
p206
sS'macxuser'
p207
S"[('192.168.0.105', False, '/datos/default/mostrar_macxuser/11/2'), ('192.168.0.106', False, '/datos/default/mostrar_macxuser/14/2')]"
p208
sS'OL'
p209
S"<class 'gluon.html.OL'>"
p210
sS'accion'
p211
S"'services'"
p212
sS'TEXTAREA'
p213
S"<class 'gluon.html.TEXTAREA'>"
p214
sS'MENU'
p215
S"<class 'gluon.html.MENU'>"
p216
sS'HOSTNAME'
p217
S'[]'
p218
sS'courses'
p219
S'<Set (course_group.cod_course IS NULL)>'
p220
sS'debug'
p221
S"{'cabezas': [], 'datos': {}}"
p222
sS'diccionario'
p223
S"{'accion': <lazyT 'Action'>, 'action': <lazyT 'Action'>, 'admin': <lazyT 'Aministrator'>, 'origen': <lazyT 'Source'>, 'paquetes': <lazyT 'Packages'>, 'password': <lazyT 'Password'>, 'remote': <lazyT 'Hosts'>, 'repositorios': <lazyT 'Repositories'>, 'somelist': <lazyT 'Users List'>, 'username': <lazyT 'User Name'>}"
p224
sS'EM'
p225
S"<class 'gluon.html.EM'>"
p226
sS'CODE'
p227
S"<class 'gluon.html.CODE'>"
p228
sS'GROUP'
p229
S"['51', '52', '61', '62']"
p230
sS'HR'
p231
S"<class 'gluon.html.HR'>"
p232
sS'cargar_variables'
p233
S'<function cargar_variables>'
p234
sS'IS_DATETIME'
p235
S"<class 'gluon.validators.IS_DATETIME'>"
p236
sS'STYLE'
p237
S"<class 'gluon.html.STYLE'>"
p238
sS'LABEL'
p239
S"<class 'gluon.html.LABEL'>"
p240
sS'escribir_variables_json'
p241
S'<function escribir_variables_json>'
p242
sS'CLEANUP'
p243
S"<class 'gluon.validators.CLEANUP'>"
p244
sS'plugins'
p245
S'<gluon.tools.PluginManager object>'
p246
sS'INPUT'
p247
S"<class 'gluon.html.INPUT'>"
p248
sS'texto_summary'
p249
S"<lazyT 'Global Summary'>"
p250
sS'SELECT'
p251
S"<class 'gluon.html.SELECT'>"
p252
sS'CENTER'
p253
S"<class 'gluon.html.CENTER'>"
p254
sS'Auth'
p255
S"<class 'gluon.tools.Auth'>"
p256
sS'DEVELOPMENT_MENU'
p257
S'False'
p258
sS'__builtins__'
p259
S"{'ArithmeticError': <type 'exceptions.ArithmeticError'>, 'AssertionError': <type 'exceptions.AssertionError'>, 'AttributeError': <type 'exceptions.AttributeError'>, 'BaseException': <type 'exceptions.BaseException'>, 'BufferError': <type 'exceptions.BufferError'>, 'BytesWarning': <type 'exceptions.BytesWarning'>, 'DeprecationWarning': <type 'exceptions.DeprecationWarning'>, 'EOFError': <type 'exceptions.EOFError'>, 'Ellipsis': Ellipsis, 'EnvironmentError': <type 'exceptions.EnvironmentError'>, ...}"
p260
sS'HTML'
p261
S"<class 'gluon.html.HTML'>"
p262
sS'SQLFORM'
p263
S"<class 'gluon.sqlhtml.SQLFORM'>"
p264
sS'adminis'
p265
S'<Rows (1)>'
p266
sS'LOAD'
p267
S'<function LOAD>'
p268
sS'redirect'
p269
S'<function redirect>'
p270
sS'FIELDSET'
p271
S"<class 'gluon.html.FIELDSET'>"
p272
sS'ast'
p273
S"<module 'ast' from '/usr/lib/python2.7/ast.pyc'>"
p274
sS'IS_EQUAL_TO'
p275
S"<class 'gluon.validators.IS_EQUAL_TO'>"
p276
sS'embed64'
p277
S'<function embed64>'
p278
sS'COL'
p279
S"<class 'gluon.html.COL'>"
p280
sS'IS_LIST_OF'
p281
S"<class 'gluon.validators.IS_LIST_OF'>"
p282
sS'left_sidebar_enabled'
p283
g258
sS'EMBED'
p284
S"<class 'gluon.html.EMBED'>"
p285
sS'separar_resultados'
p286
S'<function separar_resultados>'
p287
sS'_'
S'<function _>'
p288
sS'IS_IMAGE'
p289
S"<class 'gluon.validators.IS_IMAGE'>"
p290
sS'myconf'
p291
S"{'forms': {'formstyle': 'bootstrap3_inline', 'se...tre1@gmail.com', 'server': 'smtp.gmail.com:587'}}"
p292
sS'H2'
p293
S"<class 'gluon.html.H2'>"
p294
sS'H3'
p295
S"<class 'gluon.html.H3'>"
p296
sS'AppConfig'
p297
S'<function AppConfig>'
p298
sS'H1'
p299
S"<class 'gluon.html.H1'>"
p300
sS'H6'
p301
S"<class 'gluon.html.H6'>"
p302
sS'H4'
p303
S"<class 'gluon.html.H4'>"
p304
sS'H5'
p305
S"<class 'gluon.html.H5'>"
p306
sS'UL'
p307
S"<class 'gluon.html.UL'>"
p308
sS'IS_UPPER'
p309
S"<class 'gluon.validators.IS_UPPER'>"
p310
sS'guardar_debug'
p311
S'<function guardar_debug>'
p312
sS'resultados'
p313
S"[['192.168.0.105              ', {'changed': '0', 'failed': '0', 'ok': '1', 'unreachable': '0'}], ['192.168.0.106              ', {'changed': '0', 'failed': '0', 'ok': '1', 'unreachable': '0'}]]"
p314
sS'fila_accion'
p315
S'<Rows (1)>'
p316
sS'IS_TIME'
p317
S"<class 'gluon.validators.IS_TIME'>"
p318
sS'os'
p319
S"<module 'os' from '/usr/lib/python2.7/os.pyc'>"
p320
sS'OPTION'
p321
S"<class 'gluon.html.OPTION'>"
p322
sS'TITLE'
p323
S"<class 'gluon.html.TITLE'>"
p324
sS'CRYPT'
p325
S"<class 'gluon.validators.CRYPT'>"
p326
sS'variables'
p327
S"{'action': 'stop', 'remote': 'all', 'services': ['apache2', 'httpd']}"
p328
sS'IS_EMPTY_OR'
p329
S"<class 'gluon.validators.IS_EMPTY_OR'>"
p330
sS'MARKMIN'
p331
S"<class 'gluon.html.MARKMIN'>"
p332
sS'__name__'
p333
S"'__restricted__'"
p334
sS'HTTP'
p335
S"<class 'gluon.http.HTTP'>"
p336
sS'boton_descargar'
p337
S'<gluon.html.INPUT object>'
p338
sS'STRONG'
p339
S"<class 'gluon.html.STRONG'>"
p340
sS'query_task'
p341
S'<Query (scheduler_task.id = 258)>'
p342
sS'mc1'
p343
S"'col-md-9'"
p344
sS'mc0'
p345
S"'col-md-12'"
p346
sS'user_id'
p347
S'2'
sS'service'
p348
S'<gluon.tools.Service object>'
p349
sS'SCRIPT'
p350
S"<class 'gluon.html.SCRIPT'>"
p351
sS'leer_debug_puertos'
p352
S'<function leer_debug_puertos>'
p353
sS'json'
p354
S"<module 'json' from '/usr/lib/python2.7/json/__init__.pyc'>"
p355
sS'escribir_variables_yml'
p356
S'<function escribir_variables_yml>'
p357
sS'TABLE'
p358
S"<class 'gluon.html.TABLE'>"
p359
sS'buscar_tarea_resumen'
p360
S'<function buscar_tarea_resumen>'
p361
sS'texto_summary_per_host'
p362
S"<lazyT 'Summary per host'>"
p363
sS'IS_IPV4'
p364
S"<class 'gluon.validators.IS_IPV4'>"
p365
sS'IS_LENGTH'
p366
S"<class 'gluon.validators.IS_LENGTH'>"
p367
sS'IS_IPV6'
p368
S"<class 'gluon.validators.IS_IPV6'>"
p369
sS'XML'
p370
S"<class 'gluon.html.XML'>"
p371
sS'existe_debug'
p372
S"<lazyT 'Yes'>"
p373
sS'B'
S"<class 'gluon.html.B'>"
p374
sS'couxuser'
p375
S"[(<lazyT 'Objetos 1'>, False, '/datos/default/show_couxuser/2')]"
p376
sS'IMG'
p377
S"<class 'gluon.html.IMG'>"
p378
sS'SQLTABLE'
p379
S"<class 'gluon.sqlhtml.SQLTABLE'>"
p380
sS'IS_MATCH'
p381
S"<class 'gluon.validators.IS_MATCH'>"
p382
sS'STR_DAL'
p383
S"'postgres://postgres:1234@localhost/proyecto2'"
p384
sS'IS_ALPHANUMERIC'
p385
S"<class 'gluon.validators.IS_ALPHANUMERIC'>"
p386
sS'leer_debug_servicios'
p387
S'<function leer_debug_servicios>'
p388
sS'SPAN'
p389
S"<class 'gluon.html.SPAN'>"
p390
sS'IS_JSON'
p391
S"<class 'gluon.validators.IS_JSON'>"
p392
sS'IS_IPADDRESS'
p393
S"<class 'gluon.validators.IS_IPADDRESS'>"
p394
sS'crear_inventario'
p395
S'<function crear_inventario>'
p396
sS'P_HOST'
p397
S"['5901', '5902', '5903', '5904', '5905', '5906', '5907', '5908', '5909', '5910', '5911', '5912', '5913', '5914', '5915', '5916']"
p398
sS'IS_SLUG'
p399
S"<class 'gluon.validators.IS_SLUG'>"
p400
sS'OPERA_SYSTEM'
p401
S"['Fedora', 'CentOs', 'Ubuntu', 'Kali', 'Windows', <lazyT 'Other'>]"
p402
sS'BEAUTIFY'
p403
S"<class 'gluon.html.BEAUTIFY'>"
p404
sS'META'
p405
S"<class 'gluon.html.META'>"
p406
sS'trabajo'
p407
S'<Rows (1)>'
p408
sS'BUTTON'
p409
S"<class 'gluon.html.BUTTON'>"
p410
sS'c_group'
p411
S"<Row {'cod_course': 2L}>"
p412
sS'IS_DATE'
p413
S"<class 'gluon.validators.IS_DATE'>"
p414
sS'IS_EMAIL'
p415
S"<class 'gluon.validators.IS_EMAIL'>"
p416
sS'middle_column'
p417
S"'col-md-12'"
p418
sS'IS_NOT_EMPTY'
p419
S"<class 'gluon.validators.IS_NOT_EMPTY'>"
p420
sS'IS_FLOAT_IN_RANGE'
p421
S"<class 'gluon.validators.IS_FLOAT_IN_RANGE'>"
p422
sS'TBODY'
p423
S"<class 'gluon.html.TBODY'>"
p424
sS'CAT'
p425
S"<class 'gluon.html.CAT'>"
p426
sS'Field'
p427
S"<class 'pydal.objects.Field'>"
p428
sS'mc2'
p429
S"'col-md-6'"
p430
sS'IS_LIST_OF_EMAILS'
p431
S"<class 'gluon.validators.IS_LIST_OF_EMAILS'>"
p432
sS'datos'
p433
g45
sS'DIV'
p434
S"<class 'gluon.html.DIV'>"
p435
sS'job_user_id'
p436
S'2'
sS'LEGEND'
p437
S"<class 'gluon.html.LEGEND'>"
p438
sS'guardar_resumen'
p439
S'<function guardar_resumen>'
p440
sS'COLGROUP'
p441
S"<class 'gluon.html.COLGROUP'>"
p442
sS'DAL'
p443
S"<class 'pydal.base.DAL'>"
p444
sS'ASSIGNJS'
p445
S'<function ASSIGNJS>'
p446
sS'TR'
p447
S"<class 'gluon.html.TR'>"
p448
sS'mig'
p449
g206
sS'LI'
p450
S"<class 'gluon.html.LI'>"
p451
sS'right_sidebar_enabled'
p452
g258
sS'TH'
p453
S"<class 'gluon.html.TH'>"
p454
sS'TD'
p455
S"<class 'gluon.html.TD'>"
p456
sS'PluginManager'
p457
S"<class 'gluon.tools.PluginManager'>"
p458
sS'IS_URL'
p459
S"<class 'gluon.validators.IS_URL'>"
p460
sS'boton_volver'
p461
S'<gluon.html.INPUT object>'
p462
sS'A'
S"<class 'gluon.html.A'>"
p463
sS'HEAD'
p464
S"<class 'gluon.html.HEAD'>"
p465
sS'IS_DATETIME_IN_RANGE'
p466
S"<class 'gluon.validators.IS_DATETIME_IN_RANGE'>"
p467
sS'abrir_resumen'
p468
S'<function abrir_resumen>'
p469
sS'FORM'
p470
S"<class 'gluon.html.FORM'>"
p471
sS'texto_vars'
p472
S"<lazyT 'Variables'>"
p473
sS'I'
S"<class 'gluon.html.I'>"
p474
sS'campos_task'
p475
S'[<pydal.objects.Field object>, <pydal.objects.Field object>, <pydal.objects.Field object>]'
p476
sS'xmlescape'
p477
S'<function xmlescape>'
p478
sS'pareja'
p479
S"['192.168.0.106              ', {'changed': '0', 'failed': '0', 'ok': '1', 'unreachable': '0'}]"
p480
sS'IS_NOT_IN_DB'
p481
S"<class 'gluon.validators.IS_NOT_IN_DB'>"
p482
sS'SEMESTER'
p483
S"['2016-I', '2016-III', '2017-I', '2017-III', '2018-I', '2018-III', '2019-I', '2019-III', '2020-I', '2020-III', '2021-I', '2021-III', '2022-I', '2022-III', '2023-I', '2023-III', '2024-I', '2024-III', '2025-I', '2025-III']"
p484
sg123
S"<Storage {'body': <cStringIO.StringO object at 0...t 0x7f88567e5c80>, 'view': 'tasks/resumen.html'}>"
p485
sS'THEAD'
p486
S"<class 'gluon.html.THEAD'>"
p487
sS'ANY_OF'
p488
S"<class 'gluon.validators.ANY_OF'>"
p489
sS'IS_NULL_OR'
p490
S"<class 'gluon.validators.IS_EMPTY_OR'>"
p491
sS'campo'
p492
S"'services'"
p493
sg56
S"<Storage {'_vars': <Storage {'records': []}>, 'f...torio/repo_git/proyecto_mv/applications/datos/'}>"
p494
sS'IS_EXPR'
p495
S"<class 'gluon.validators.IS_EXPR'>"
p496
sS'T'
S'<gluon.languages.translator object>'
p497
sS'IS_IN_SET'
p498
S"<class 'gluon.validators.IS_IN_SET'>"
p499
sS'IS_UPLOAD_FILENAME'
p500
S"<class 'gluon.validators.IS_UPLOAD_FILENAME'>"
p501
sS'IS_DECIMAL_IN_RANGE'
p502
S"<class 'gluon.validators.IS_DECIMAL_IN_RANGE'>"
p503
sS'TT'
p504
S"<class 'gluon.html.TT'>"
p505
sS're'
p506
S"<module 're' from '/usr/lib/python2.7/re.pyc'>"
p507
sS'cabezas'
p508
S'[]'
p509
sssS'traceback'
p510
S'Traceback (most recent call last):\n  File "/home/camilo/Escritorio/repo_git/proyecto_mv/gluon/restricted.py", line 227, in restricted\n    exec ccode in environment\n  File "/home/camilo/Escritorio/repo_git/proyecto_mv/applications/datos/views/tasks/resumen.html", line 111, in <module>\n    </div>\nKeyError: \'services\'\n'
p511
s.