(dp1
S'output'
p2
S"<type 'exceptions.NameError'> name 'Repositories' is not defined"
p3
sS'layer'
p4
S'/home/camilo/Escritorio/nuevo_nuevo_repo_git/proyecto_mv/applications/datos/views/commands/system.html'
p5
sS'code'
p6
S'response.write(\'<!DOCTYPE html>\\n<!--[if (gt IE 9)|!(IE)]><!--> <html class="no-js" lang="\', escape=False)\nresponse.write(T.accepted_language or \'en\')\nresponse.write(\'"> <!--<![endif]-->\\n  <head>\\n    <meta charset="utf-8">\\n    <!-- www.phpied.com/conditional-comments-block-downloads/ -->\\n    <!-- Always force latest IE rendering engine\\n         (even in intranet) & Chrome Frame\\n         Remove this if you use the .htaccess -->\\n    <meta http-equiv="X-UA-Compatible" content="IE=edge\', escape=False)\nresponse.write(not request.is_local and \',chrome=1\' or \'\')\nresponse.write(\'">\\n    <!--  Mobile Viewport Fix\\n          j.mp/mobileviewport & davidbcalhoun.com/2010/viewport-metatag\\n          device-width: Occupy full width of the screen in its current orientation\\n          initial-scale = 1.0 retains dimensions instead of zooming out if page height > device height\\n          user-scalable = yes allows the user to zoom in -->\\n    <meta name="viewport" content="width=device-width, initial-scale=1.0">\\n    <title>\', escape=False)\nresponse.write(response.title or request.application)\nresponse.write(\'</title>\\n    <!-- http://dev.w3.org/html5/markup/meta.name.html -->\\n    <meta name="application-name" content="\', escape=False)\nresponse.write(request.application)\nresponse.write(\'">\\n    <!-- Speaking of Google, don\\\'t forget to set your site up:\\n         http://google.com/webmasters -->\\n    <meta name="google-site-verification" content="">\\n    <!-- include stylesheets -->\\n    <link rel="stylesheet" href="\', escape=False)\nresponse.write(URL(\'static\',\'css/bootstrap.min.css\'))\nresponse.write(\'"/>\\n    <link rel="stylesheet" href="\', escape=False)\nresponse.write(URL(\'static\',\'css/web2py-bootstrap3.css\'))\nresponse.write(\'"/>\\n    <link rel="shortcut icon" href="\', escape=False)\nresponse.write(URL(\'static\',\'images/favicon.ico\'))\nresponse.write(\'" type="image/x-icon">\\n    <link rel="apple-touch-icon" href="\', escape=False)\nresponse.write(URL(\'static\',\'images/favicon.png\'))\nresponse.write(\'">\\n    <!-- All JavaScript at the bottom, except for Modernizr which enables\\n         HTML5 elements & feature detects -->\\n    <script src="\', escape=False)\nresponse.write(URL(\'static\',\'js/modernizr-2.8.3.min.js\'))\nresponse.write(\'"></script>\\n    <!--[if lt IE 9]>\\n        <script src="\', escape=False)\nresponse.write(URL(\'static\',\'js/respond-1.4.2.min.js\'))\nresponse.write(\'"></script>\\n        <![endif]-->\\n    <!-- Favicons -->\\n    \', escape=False)\nresponse.write(\'<script type="text/javascript"><!--\\n    // These variables are used by the web2py_ajax_init function in web2py_ajax.js (which is loaded below).\\n    var w2p_ajax_confirm_message = "\', escape=False)\nresponse.write(T(\'Are you sure you want to delete this object?\'))\nresponse.write(\'";\\n    var w2p_ajax_disable_with_message = "\', escape=False)\nresponse.write(T(\'Working...\'))\nresponse.write(\'";\\n    var w2p_ajax_date_format = "\', escape=False)\nresponse.write(T(\'%Y-%m-%d\'))\nresponse.write(\'";\\n    var w2p_ajax_datetime_format = "\', escape=False)\nresponse.write(T(\'%Y-%m-%d %H:%M:%S\'))\nresponse.write(\'";\\n    var ajax_error_500 = \\\'\', escape=False)\nresponse.write(T.M(\'An error occured, please [[reload %s]] the page\') % URL(args=request.args, vars=request.get_vars))\nresponse.write("\'\\n    //--></script>\\n", escape=False)\nresponse.files.insert(0,URL(\'static\',\'js/jquery.js\'))\nresponse.files.insert(1,URL(\'static\',\'css/calendar.css\'))\nresponse.files.insert(2,URL(\'static\',\'js/calendar.js\'))\nresponse.files.insert(3,URL(\'static\',\'js/web2py.js\'))\nresponse.include_meta()\nresponse.include_files()\nresponse.write(\'\\n\', escape=False)\nresponse.write(\' <!-- this includes jquery.js, calendar.js/.css and web2py.js -->\\n    \', escape=False)\nresponse.write(\'\\n    \', escape=False)\n# using sidebars need to know what sidebar you want to use\nmc0 = \'col-md-12\'\nmc1 = \'col-md-9\'\nmc2 = \'col-md-6\'\nleft_sidebar_enabled = globals().get(\'left_sidebar_enabled\', False)\nright_sidebar_enabled = globals().get(\'right_sidebar_enabled\', False)\nmiddle_column = {0: mc0, 1: mc1, 2: mc2}[\n(left_sidebar_enabled and 1 or 0)+(right_sidebar_enabled and 1 or 0)]\nresponse.write(\'\\n  </head>\\n  <body>\\n    <!--[if lt IE 8]><p class="browserupgrade">You are using an <strong>outdated</strong> browser. Please <a href="http://browsehappy.com/">upgrade your browser</a> to improve your experience.</p><![endif]-->\\n    <div class="w2p_flash alert alert-dismissable">\', escape=False)\nresponse.write(response.flash or \'\')\nresponse.write(\'</div>\\n    <!-- Navbar ======================================= -->\\n    <nav class="navbar navbar-default navbar-fixed-top" role="navigation">\\n      <div class="container-fluid">\\n        <div class="navbar-header">\\n          <button type="button" class="navbar-toggle" data-toggle="collapse" data-target=".navbar-collapse">\\n            <span class="sr-only">Toggle navigation</span>\\n            <span class="icon-bar"></span>\\n            <span class="icon-bar"></span>\\n            <span class="icon-bar"></span>\\n          </button>\\n          \', escape=False)\nresponse.write(response.logo or \'\')\nresponse.write(\'\\n        </div>\\n        <div class="collapse navbar-collapse navbar-ex1-collapse">\\n          <ul class="nav navbar-nav navbar-right">\\n            \', escape=False)\nresponse.write(\'auth\' in globals() and auth.navbar(\'Welcome\',mode=\'dropdown\') or \'\')\nresponse.write(\'\\n          </ul>\\n          \', escape=False)\nif response.menu:\n    response.write(\'\\n          \', escape=False)\n    response.write(MENU(response.menu, _class=\'nav navbar-nav\',li_class=\'dropdown\',ul_class=\'dropdown-menu\'))\n    response.write(\'\\n          \', escape=False)\n    pass\nresponse.write(\'\\n        </div>\\n      </div>\\n    </nav>\\n    <!-- Masthead ===================================== -->    \\n    \', escape=False)\nresponse.write(\'\\n    \', escape=False)\nresponse.write(\'\\n    <!-- Main ========================================= -->\\n    <!-- Begin page content -->\\n    <div class="container-fluid main-container">\\n      \', escape=False)\nif left_sidebar_enabled:\n    response.write(\'\\n        <div class="col-md-3 left-sidebar">\\n            \', escape=False)\n    response.write(\'\\n            <h3>Left Sidebar</h3>\\n            <p></p>\\n            \', escape=False)\n    response.write(\'\\n        </div>\\n      \', escape=False)\n    pass\nresponse.write(\'\\n\\n      <div class="\', escape=False)\nresponse.write(middle_column)\nresponse.write(\'">\\n        \', escape=False)\nresponse.write(\'\\n        \', escape=False)\nresponse.write(\'\\n\\n<div class="container" >\\n  <div class="jumbotron" align=\\\'center\\\'>\\n    <h1>\', escape=False)\nresponse.write(T(\'System\'))\nresponse.write(\'</h1> \\n</div>\\n\\n<div class="panel panel-success" id="system">\\n    <div class="panel-heading">\\n        <h2 class="panel-title">\', escape=False)\nresponse.write(T(\'What do you want to do?\'))\nresponse.write(\'</h2>\\n</div>\\n     \\n<div class="panel-body">\\n    \\n    <div class="dropdown">\\n        <button class="btn btn-default dropdown-toggle btn-lg" type="button" data-toggle="dropdown">Basic Commands\\n        <span class="caret"></span></button>\\n        <ul class="dropdown-menu">\\n          <li class="dropdown-header">\', escape=False)\nresponse.write(T(\'General\'))\nresponse.write(\'</li>\\n            <li><a href="\', escape=False)\nresponse.write(URL(\'maquinas\',\'mostrar\', vars=dict(accion= \'reboot\')))\nresponse.write(\'">\', escape=False)\nresponse.write(T("Reboot System"))\nresponse.write(\'</a></li>\\n          <li class="divider"></li>\\n            \\n          <li class="dropdown-header">VNC</li>\\n            <li><a href="\', escape=False)\nresponse.write(URL(\'maquinas\',\'mostrar\', vars=dict(accion= \'first_time\')))\nresponse.write(\'">\', escape=False)\nresponse.write(T(\'Enable SSH access and install vnc\'))\nresponse.write(\'</a></li>\\n            <li><a href="\', escape=False)\nresponse.write(URL(\'maquinas\',\'mostrar\', vars=dict(accion= \'enable_vnc_ports\')))\nresponse.write(\'">\', escape=False)\nresponse.write(T(\'Enable vnc (First create users)\'))\nresponse.write(\'</a></li>\\n    </div>\\n    \\n     <div class="dropdown">\\n        <button class="btn btn-default dropdown-toggle btn-lg" type="button" data-toggle="dropdown"\', escape=False)\nresponse.write(T(\'Packages and repositories\'))\nresponse.write(\'\\n        <span class="caret"></span></button>\\n        <ul class="dropdown-menu">\\n          <li class="dropdown-header">\', escape=False)\nresponse.write(T(\'Packages\'))\nresponse.write(\'</li>\\n            <li><a href="\', escape=False)\nresponse.write(URL(\'maquinas\',\'mostrar\', vars=dict(accion= \'install_package\')))\nresponse.write(\'">\', escape=False)\nresponse.write(T(\'Install Packages\'))\nresponse.write(\'</a></li>\\n          <li class="divider"></li>\\n            \\n          <li class="dropdown-header">\', escape=False)\nresponse.write(T(Repositories))\nresponse.write(\'</li>\\n            <li><a href="#">JavaScript</a></li>\\n            <li><a href="#">About Us</a></li>\\n        </ul>\\n    </div>\\n         \\n    <a href="\', escape=False)\nresponse.write(URL(\'maquinas\',\'mostrar\', vars=dict(accion= \'remove_packages\')))\nresponse.write(\'">\\n        <button class= \\\'btn btn-default btn-lg\\\'> \', escape=False)\nresponse.write(T(\'Remove packages\'))\nresponse.write(\' </button>\\n    </a>\\n         \\n    <a href="\', escape=False)\nresponse.write(URL(\'maquinas\',\'mostrar\', vars=dict(accion= \'add_repo\')))\nresponse.write(\'">\\n        <button class= \\\'btn btn-default btn-lg\\\'> \', escape=False)\nresponse.write(T(\'Add Repositories\'))\nresponse.write(\' </button>\\n    </a>\\n    \\n    <a href="\', escape=False)\nresponse.write(URL(\'maquinas\',\'mostrar\', vars=dict(accion= \'remove_repo\')))\nresponse.write(\'">\\n        <button class= \\\'btn btn-default btn-lg\\\'> \', escape=False)\nresponse.write(T(\'Remove Repositories\'))\nresponse.write(\' </button>\\n    </a>\\n\\n        \\n        \\n<!--    \\n     <div class="dropdown">\\n        <button class="btn btn-default dropdown-toggle btn-lg" type="button" data-toggle="dropdown">Basic Commands\\n        <span class="caret"></span></button>\\n        <ul class="dropdown-menu">\\n          <li class="dropdown-header">\', escape=False)\nresponse.write(T(\'General\'))\nresponse.write(\'</li>\\n            <li><a href="\', escape=False)\nresponse.write(URL(\'maquinas\',\'mostrar\', vars=dict(accion= \'reboot\')))\nresponse.write(\'">\', escape=False)\nresponse.write(T("Reboot System"))\nresponse.write(\'</a></li>\\n          <li class="divider"></li>\\n            \\n          <li class="dropdown-header">VNC</li>\\n            <li><a href="">CSS</a></li>\\n            <li><a href="#">JavaScript</a></li>\\n            <li><a href="#">About Us</a></li>\\n        </ul>\\n    </div>\\n-->        \\n        \\n    <br><br>\\n    <h3>\\n        \', escape=False)\nresponse.write(T(\'Services\'))\nresponse.write(\'\\n    </h3>\\n    \\n    <a href="\', escape=False)\nresponse.write(URL(\'maquinas\',\'mostrar\', vars=dict(accion= \'start_services\')))\nresponse.write(\'">\\n        <button class= \\\'btn btn-default btn-lg\\\'> \', escape=False)\nresponse.write(T(\'Start services\'))\nresponse.write(\' </button>\\n         </a>\\n    <a href="\', escape=False)\nresponse.write(URL(\'maquinas\',\'mostrar\', vars=dict(accion= \'stop_services\')))\nresponse.write(\'">\\n        <button class= \\\'btn btn-default btn-lg\\\'> \', escape=False)\nresponse.write(T(\'Stop services\'))\nresponse.write(\' </button>\\n    </a>\\n    \\n    <a href="\', escape=False)\nresponse.write(URL(\'maquinas\',\'mostrar\', vars=dict(accion= \'restart_services\')))\nresponse.write(\'">\\n        <button class= \\\'btn btn-default btn-lg\\\'> \', escape=False)\nresponse.write(T(\'Restart services\'))\nresponse.write(\' </button>\\n    </a>\\n    \\n    <a href="\', escape=False)\nresponse.write(URL(\'maquinas\',\'mostrar\', vars=dict(accion= \'reload_services\')))\nresponse.write(\'">\\n        <button class= \\\'btn btn-default btn-lg\\\'> \', escape=False)\nresponse.write(T(\'Reload services\'))\nresponse.write(\' </button>\\n    </a>\\n         \\n    <br><br>\\n    <h3>\\n        \', escape=False)\nresponse.write(T(\'Ports\'))\nresponse.write(\'\\n    </h3>\\n    \\n    <a href="\', escape=False)\nresponse.write(URL(\'maquinas\',\'mostrar\', vars=dict(accion= \'ports\')))\nresponse.write(\'">\\n        <button class= \\\'btn btn-default btn-lg\\\'> \', escape=False)\nresponse.write(T("Don\'t click, it\'s just a test"))\nresponse.write(\' </button>\\n    </a>\\n         \\n<!--         \\n         <br><br>\\n          <h3>\\n             \', escape=False)\nresponse.write(T(\'VNC\'))\nresponse.write(\'\\n         </h3>\\n         <a href="\', escape=False)\nresponse.write(URL(\'maquinas\',\'mostrar\', vars=dict(accion= \'enable_vnc_ports\')))\nresponse.write(\'">\\n            <button class= \\\'btn btn-default btn-lg\\\'> \', escape=False)\nresponse.write(T("Enable vnc ports"))\nresponse.write(\' </button>\\n         </a>\\n          <br><br>\\n-->\\n\\n    <h3>\\n        \', escape=False)\nresponse.write(T(\'Cron tasks\'))\nresponse.write(\'\\n    </h3>\\n    <a href="\', escape=False)\nresponse.write(URL(\'maquinas\',\'mostrar\', vars=dict(accion= \'update_packges\')))\nresponse.write(\'">\\n        <button class= \\\'btn btn-default btn-lg\\\'> \', escape=False)\nresponse.write(T(\'Schedule an upgrade\'))\nresponse.write(\' </button>\\n    </a>\\n         \\n    <a href="\', escape=False)\nresponse.write(URL(\'maquinas\',\'mostrar\', vars=dict(accion= \'custom_task\')))\nresponse.write(\'">\\n        <button class= \\\'btn btn-default btn-lg\\\'> \', escape=False)\nresponse.write(T(\'Schedule a command (Bash not available)\'))\nresponse.write(\' </button>\\n    </a>\\n\\n    <a href="\', escape=False)\nresponse.write(URL(\'maquinas\',\'mostrar\', vars=dict(accion= \'delete_task\')))\nresponse.write(\'">\\n        <button class= \\\'btn btn-default btn-lg\\\'> \', escape=False)\nresponse.write(T(\'Delete a task by its name\'))\nresponse.write(\' </button>\\n    </a>\\n    </div>\\n</div>\\n\', escape=False)\nresponse.write(BEAUTIFY(response._vars))\nresponse.write(\'\\n\', escape=False)\nresponse.write(\'\\n        \', escape=False)\nresponse.write(\'\\n      </div>\\n\\n      \', escape=False)\nif right_sidebar_enabled:\n    response.write(\'\\n        <div class="col-md-3">\\n            \', escape=False)\n    response.write(\'\\n            <h3>Right Sidebar</h3>\\n            <p></p>\\n            \', escape=False)\n    response.write(\'\\n        </div>\\n      \', escape=False)\n    pass\nresponse.write(\'\\n\\n    </div>\\n\\n    \', escape=False)\nresponse.write(\' <!-- this is default footer -->      \\n    <footer class="footer">\\n      <div class="container-fluid">\\n        <div class="copyright pull-left">\', escape=False)\nresponse.write(T(\'Copyright\'))\nresponse.write(\' &#169; \', escape=False)\nresponse.write(request.now.year)\nresponse.write(\'</div>\\n          <div id="poweredBy" class="pull-right">\\n            \', escape=False)\nresponse.write(T(\'Powered by\'))\nresponse.write(\'\\n            <a href="http://www.web2py.com/">web2py</a>\\n          </div>\\n      </div>\\n    </footer>\\n    \', escape=False)\nresponse.write(\'\\n      \\n      \\n    <!-- The javascript =============================== -->\\n    <script src="\', escape=False)\nresponse.write(URL(\'static\',\'js/bootstrap.min.js\'))\nresponse.write(\'"></script>\\n    <script src="\', escape=False)\nresponse.write(URL(\'static\',\'js/web2py-bootstrap3.js\'))\nresponse.write(\'"></script>\\n    \', escape=False)\nresponse.write(\'\\n    \', escape=False)\nif response.google_analytics_id:\n    response.write(\'\\n    <!-- Analytics ==================================== -->\\n    <script src="\', escape=False)\n    response.write(URL(\'static\',\'js/analytics.min.js\'))\n    response.write(\'"></script>\\n    <script type="text/javascript">\\n      analytics.initialize({\\n      \\\'Google Analytics\\\':{trackingId:\\\'\', escape=False)\n    response.write(response.google_analytics_id)\n    response.write("\'}\\n      });\\n    </script>\\n    ", escape=False)\n    pass\nresponse.write(\'\\n    <!-- Share ============================y============ -->\\n    <script src="\', escape=False)\nresponse.write(URL(\'static\',\'js/share.js\',vars=dict(static=URL(\'static\',\'images\'))))\nresponse.write(\'"></script>\\n  </body>\\n</html>\\n\', escape=False)'
p7
sS'snapshot'
p8
(dp9
S'exception'
p10
(dp11
S'__hash__'
p12
S"<method-wrapper '__hash__' of exceptions.NameError object>"
p13
sS'__setattr__'
p14
S"<method-wrapper '__setattr__' of exceptions.NameError object>"
p15
sS'__reduce_ex__'
p16
S'<built-in method __reduce_ex__ of exceptions.NameError object>'
p17
sS'__getslice__'
p18
S"<method-wrapper '__getslice__' of exceptions.NameError object>"
p19
sS'__getitem__'
p20
S"<method-wrapper '__getitem__' of exceptions.NameError object>"
p21
sS'__setstate__'
p22
S'<built-in method __setstate__ of exceptions.NameError object>'
p23
sS'args'
p24
S'("name \'Repositories\' is not defined",)'
p25
sS'__reduce__'
p26
S'<built-in method __reduce__ of exceptions.NameError object>'
p27
sS'__str__'
p28
S"<method-wrapper '__str__' of exceptions.NameError object>"
p29
sS'__format__'
p30
S'<built-in method __format__ of exceptions.NameError object>'
p31
sS'__getattribute__'
p32
S"<method-wrapper '__getattribute__' of exceptions.NameError object>"
p33
sS'__class__'
p34
S"<type 'exceptions.NameError'>"
p35
sS'__unicode__'
p36
S'<built-in method __unicode__ of exceptions.NameError object>'
p37
sS'__delattr__'
p38
S"<method-wrapper '__delattr__' of exceptions.NameError object>"
p39
sS'__subclasshook__'
p40
S'<built-in method __subclasshook__ of type object>'
p41
sS'__repr__'
p42
S"<method-wrapper '__repr__' of exceptions.NameError object>"
p43
sS'__dict__'
p44
S'{}'
p45
sS'__sizeof__'
p46
S'<built-in method __sizeof__ of exceptions.NameError object>'
p47
sS'__doc__'
p48
S"'Name not found globally.'"
p49
sS'__init__'
p50
S"<method-wrapper '__init__' of exceptions.NameError object>"
p51
sS'__new__'
p52
S'<built-in method __new__ of type object>'
p53
ssS'evalue'
p54
S"name 'Repositories' is not defined"
p55
sS'request'
p56
cgluon.html
XML_unpickle
p57
(S's\xc17\x00\x00<div><table><tr><td style="font-weight:bold;vertical-align:top;">ajax</td><td style="vertical-align:top;">:</td><td><div>False</div></td></tr><tr><td style="font-weight:bold;vertical-align:top;">application</td><td style="vertical-align:top;">:</td><td><div>datos</div></td></tr><tr><td style="font-weight:bold;vertical-align:top;">args</td><td style="vertical-align:top;">:</td><td><div><table></table></div></td></tr><tr><td style="font-weight:bold;vertical-align:top;">cid</td><td style="vertical-align:top;">:</td><td><div>None</div></td></tr><tr><td style="font-weight:bold;vertical-align:top;">client</td><td style="vertical-align:top;">:</td><td><div>127.0.0.1</div></td></tr><tr><td style="font-weight:bold;vertical-align:top;">controller</td><td style="vertical-align:top;">:</td><td><div>commands</div></td></tr><tr><td style="font-weight:bold;vertical-align:top;">cookies</td><td style="vertical-align:top;">:</td><td><div><table><tr><td style="font-weight:bold;vertical-align:top;">session_id_admin</td><td style="vertical-align:top;">:</td><td><div>127.0.0.1-b7fe206e-e44b-4a8b-8fc1-b2d6d0fa1466<table><tr><td style="font-weight:bold;vertical-align:top;">comment</td><td style="vertical-align:top;">:</td><td><div></div></td></tr><tr><td style="font-weight:bold;vertical-align:top;">domain</td><td style="vertical-align:top;">:</td><td><div></div></td></tr><tr><td style="font-weight:bold;vertical-align:top;">expires</td><td style="vertical-align:top;">:</td><td><div></div></td></tr><tr><td style="font-weight:bold;vertical-align:top;">httponly</td><td style="vertical-align:top;">:</td><td><div></div></td></tr><tr><td style="font-weight:bold;vertical-align:top;">max-age</td><td style="vertical-align:top;">:</td><td><div></div></td></tr><tr><td style="font-weight:bold;vertical-align:top;">path</td><td style="vertical-align:top;">:</td><td><div></div></td></tr><tr><td style="font-weight:bold;vertical-align:top;">secure</td><td style="vertical-align:top;">:</td><td><div></div></td></tr><tr><td style="font-weight:bold;vertical-align:top;">version</td><td style="vertical-align:top;">:</td><td><div></div></td></tr></table></div></td></tr><tr><td style="font-weight:bold;vertical-align:top;">session_id_datos</td><td style="vertical-align:top;">:</td><td><div>127.0.0.1-5b2bbde6-32e3-4ba5-a17d-94319e7b5424<table><tr><td style="font-weight:bold;vertical-align:top;">comment</td><td style="vertical-align:top;">:</td><td><div></div></td></tr><tr><td style="font-weight:bold;vertical-align:top;">domain</td><td style="vertical-align:top;">:</td><td><div></div></td></tr><tr><td style="font-weight:bold;vertical-align:top;">expires</td><td style="vertical-align:top;">:</td><td><div></div></td></tr><tr><td style="font-weight:bold;vertical-align:top;">httponly</td><td style="vertical-align:top;">:</td><td><div></div></td></tr><tr><td style="font-weight:bold;vertical-align:top;">max-age</td><td style="vertical-align:top;">:</td><td><div></div></td></tr><tr><td style="font-weight:bold;vertical-align:top;">path</td><td style="vertical-align:top;">:</td><td><div></div></td></tr><tr><td style="font-weight:bold;vertical-align:top;">secure</td><td style="vertical-align:top;">:</td><td><div></div></td></tr><tr><td style="font-weight:bold;vertical-align:top;">version</td><td style="vertical-align:top;">:</td><td><div></div></td></tr></table></div></td></tr></table></div></td></tr><tr><td style="font-weight:bold;vertical-align:top;">env</td><td style="vertical-align:top;">:</td><td><div><table><tr><td style="font-weight:bold;vertical-align:top;">HTTP_ACCEPT</td><td style="vertical-align:top;">:</td><td><div>text/html,application/xhtml+xml,application/xml;q=0.9,*/*;q=0.8</div></td></tr><tr><td style="font-weight:bold;vertical-align:top;">HTTP_ACCEPT_ENCODING</td><td style="vertical-align:top;">:</td><td><div>gzip, deflate</div></td></tr><tr><td style="font-weight:bold;vertical-align:top;">HTTP_ACCEPT_LANGUAGE</td><td style="vertical-align:top;">:</td><td><div>fr,fr-FR;q=0.8,en-US;q=0.5,en;q=0.3</div></td></tr><tr><td style="font-weight:bold;vertical-align:top;">HTTP_CONNECTION</td><td style="vertical-align:top;">:</td><td><div>keep-alive</div></td></tr><tr><td style="font-weight:bold;vertical-align:top;">HTTP_COOKIE</td><td style="vertical-align:top;">:</td><td><div>session_id_admin=127.0.0.1-b7fe206e-e44b-4a8b-8fc1-b2d6d0fa1466; session_id_datos=127.0.0.1-5b2bbde6-32e3-4ba5-a17d-94319e7b5424</div></td></tr><tr><td style="font-weight:bold;vertical-align:top;">HTTP_HOST</td><td style="vertical-align:top;">:</td><td><div>127.0.0.1:8000</div></td></tr><tr><td style="font-weight:bold;vertical-align:top;">HTTP_USER_AGENT</td><td style="vertical-align:top;">:</td><td><div>Mozilla/5.0 (X11; Ubuntu; Linux x86_64; rv:44.0) Gecko/20100101 Firefox/44.0</div></td></tr><tr><td style="font-weight:bold;vertical-align:top;">PATH_INFO</td><td style="vertical-align:top;">:</td><td><div>/datos/commands/system</div></td></tr><tr><td style="font-weight:bold;vertical-align:top;">QUERY_STRING</td><td style="vertical-align:top;">:</td><td><div></div></td></tr><tr><td style="font-weight:bold;vertical-align:top;">REMOTE_ADDR</td><td style="vertical-align:top;">:</td><td><div>127.0.0.1</div></td></tr><tr><td style="font-weight:bold;vertical-align:top;">REMOTE_PORT</td><td style="vertical-align:top;">:</td><td><div>45761</div></td></tr><tr><td style="font-weight:bold;vertical-align:top;">REQUEST_METHOD</td><td style="vertical-align:top;">:</td><td><div>GET</div></td></tr><tr><td style="font-weight:bold;vertical-align:top;">SCRIPT_NAME</td><td style="vertical-align:top;">:</td><td><div></div></td></tr><tr><td style="font-weight:bold;vertical-align:top;">SERVER_NAME</td><td style="vertical-align:top;">:</td><td><div>camilo-GX70-3CC</div></td></tr><tr><td style="font-weight:bold;vertical-align:top;">SERVER_PORT</td><td style="vertical-align:top;">:</td><td><div>8000</div></td></tr><tr><td style="font-weight:bold;vertical-align:top;">SERVER_PROTOCOL</td><td style="vertical-align:top;">:</td><td><div>HTTP/1.1</div></td></tr><tr><td style="font-weight:bold;vertical-align:top;">SERVER_SOFTWARE</td><td style="vertical-align:top;">:</td><td><div>Rocket 1.2.6</div></td></tr><tr><td style="font-weight:bold;vertical-align:top;">http_accept</td><td style="vertical-align:top;">:</td><td><div>text/html,application/xhtml+xml,application/xml;q=0.9,*/*;q=0.8</div></td></tr><tr><td style="font-weight:bold;vertical-align:top;">http_accept_encoding</td><td style="vertical-align:top;">:</td><td><div>gzip, deflate</div></td></tr><tr><td style="font-weight:bold;vertical-align:top;">http_accept_language</td><td style="vertical-align:top;">:</td><td><div>fr,fr-FR;q=0.8,en-US;q=0.5,en;q=0.3</div></td></tr><tr><td style="font-weight:bold;vertical-align:top;">http_connection</td><td style="vertical-align:top;">:</td><td><div>keep-alive</div></td></tr><tr><td style="font-weight:bold;vertical-align:top;">http_cookie</td><td style="vertical-align:top;">:</td><td><div>session_id_admin=127.0.0.1-b7fe206e-e44b-4a8b-8fc1-b2d6d0fa1466; session_id_datos=127.0.0.1-5b2bbde6-32e3-4ba5-a17d-94319e7b5424</div></td></tr><tr><td style="font-weight:bold;vertical-align:top;">http_host</td><td style="vertical-align:top;">:</td><td><div>127.0.0.1:8000</div></td></tr><tr><td style="font-weight:bold;vertical-align:top;">http_user_agent</td><td style="vertical-align:top;">:</td><td><div>Mozilla/5.0 (X11; Ubuntu; Linux x86_64; rv:44.0) Gecko/20100101 Firefox/44.0</div></td></tr><tr><td style="font-weight:bold;vertical-align:top;">path_info</td><td style="vertical-align:top;">:</td><td><div>/datos/commands/system</div></td></tr><tr><td style="font-weight:bold;vertical-align:top;">query_string</td><td style="vertical-align:top;">:</td><td><div></div></td></tr><tr><td style="font-weight:bold;vertical-align:top;">remote_addr</td><td style="vertical-align:top;">:</td><td><div>127.0.0.1</div></td></tr><tr><td style="font-weight:bold;vertical-align:top;">remote_port</td><td style="vertical-align:top;">:</td><td><div>45761</div></td></tr><tr><td style="font-weight:bold;vertical-align:top;">request_method</td><td style="vertical-align:top;">:</td><td><div>GET</div></td></tr><tr><td style="font-weight:bold;vertical-align:top;">request_uri</td><td style="vertical-align:top;">:</td><td><div>/datos/commands/system</div></td></tr><tr><td style="font-weight:bold;vertical-align:top;">script_name</td><td style="vertical-align:top;">:</td><td><div></div></td></tr><tr><td style="font-weight:bold;vertical-align:top;">server_name</td><td style="vertical-align:top;">:</td><td><div>camilo-GX70-3CC</div></td></tr><tr><td style="font-weight:bold;vertical-align:top;">server_port</td><td style="vertical-align:top;">:</td><td><div>8000</div></td></tr><tr><td style="font-weight:bold;vertical-align:top;">server_protocol</td><td style="vertical-align:top;">:</td><td><div>HTTP/1.1</div></td></tr><tr><td style="font-weight:bold;vertical-align:top;">server_software</td><td style="vertical-align:top;">:</td><td><div>Rocket 1.2.6</div></td></tr><tr><td style="font-weight:bold;vertical-align:top;">web2py_path</td><td style="vertical-align:top;">:</td><td><div>/home/camilo/Escritorio/nuevo_nuevo_repo_git/proyecto_mv</div></td></tr><tr><td style="font-weight:bold;vertical-align:top;">web2py_version</td><td style="vertical-align:top;">:</td><td><div>2.13.4-stable+timestamp.2016.02.10.15.41.11</div></td></tr><tr><td style="font-weight:bold;vertical-align:top;">wsgi.errors</td><td style="vertical-align:top;">:</td><td><div>&lt;open file &#x27;&lt;stderr&gt;&#x27;, mode &#x27;w&#x27; at 0x7f0f3900f1e0&gt;</div></td></tr><tr><td style="font-weight:bold;vertical-align:top;">wsgi.file_wrapper</td><td style="vertical-align:top;">:</td><td><div>&lt;class wsgiref.util.FileWrapper at 0x7f0f312af2c0&gt;</div></td></tr><tr><td style="font-weight:bold;vertical-align:top;">wsgi.input</td><td style="vertical-align:top;">:</td><td><div>&lt;socket._fileobject object at 0x7f0ef772b7d0&gt;</div></td></tr><tr><td style="font-weight:bold;vertical-align:top;">wsgi.multiprocess</td><td style="vertical-align:top;">:</td><td><div>False</div></td></tr><tr><td style="font-weight:bold;vertical-align:top;">wsgi.multithread</td><td style="vertical-align:top;">:</td><td><div>True</div></td></tr><tr><td style="font-weight:bold;vertical-align:top;">wsgi.run_once</td><td style="vertical-align:top;">:</td><td><div>False</div></td></tr><tr><td style="font-weight:bold;vertical-align:top;">wsgi.url_scheme</td><td style="vertical-align:top;">:</td><td><div>http</div></td></tr><tr><td style="font-weight:bold;vertical-align:top;">wsgi.version</td><td style="vertical-align:top;">:</td><td><div><table><tr><td><div>1</div></td></tr><tr><td><div>0</div></td></tr></table></div></td></tr><tr><td style="font-weight:bold;vertical-align:top;">wsgi_errors</td><td style="vertical-align:top;">:</td><td><div>&lt;open file &#x27;&lt;stderr&gt;&#x27;, mode &#x27;w&#x27; at 0x7f0f3900f1e0&gt;</div></td></tr><tr><td style="font-weight:bold;vertical-align:top;">wsgi_file_wrapper</td><td style="vertical-align:top;">:</td><td><div>&lt;class wsgiref.util.FileWrapper at 0x7f0f312af2c0&gt;</div></td></tr><tr><td style="font-weight:bold;vertical-align:top;">wsgi_input</td><td style="vertical-align:top;">:</td><td><div>&lt;socket._fileobject object at 0x7f0ef772b7d0&gt;</div></td></tr><tr><td style="font-weight:bold;vertical-align:top;">wsgi_multiprocess</td><td style="vertical-align:top;">:</td><td><div>False</div></td></tr><tr><td style="font-weight:bold;vertical-align:top;">wsgi_multithread</td><td style="vertical-align:top;">:</td><td><div>True</div></td></tr><tr><td style="font-weight:bold;vertical-align:top;">wsgi_run_once</td><td style="vertical-align:top;">:</td><td><div>False</div></td></tr><tr><td style="font-weight:bold;vertical-align:top;">wsgi_url_scheme</td><td style="vertical-align:top;">:</td><td><div>http</div></td></tr><tr><td style="font-weight:bold;vertical-align:top;">wsgi_version</td><td style="vertical-align:top;">:</td><td><div><table><tr><td><div>1</div></td></tr><tr><td><div>0</div></td></tr></table></div></td></tr></table></div></td></tr><tr><td style="font-weight:bold;vertical-align:top;">extension</td><td style="vertical-align:top;">:</td><td><div>html</div></td></tr><tr><td style="font-weight:bold;vertical-align:top;">folder</td><td style="vertical-align:top;">:</td><td><div>/home/camilo/Escritorio/nuevo_nuevo_repo_git/proyecto_mv/applications/datos/</div></td></tr><tr><td style="font-weight:bold;vertical-align:top;">function</td><td style="vertical-align:top;">:</td><td><div>system</div></td></tr><tr><td style="font-weight:bold;vertical-align:top;">is_https</td><td style="vertical-align:top;">:</td><td><div>False</div></td></tr><tr><td style="font-weight:bold;vertical-align:top;">is_local</td><td style="vertical-align:top;">:</td><td><div>True</div></td></tr><tr><td style="font-weight:bold;vertical-align:top;">is_restful</td><td style="vertical-align:top;">:</td><td><div>False</div></td></tr><tr><td style="font-weight:bold;vertical-align:top;">is_scheduler</td><td style="vertical-align:top;">:</td><td><div>False</div></td></tr><tr><td style="font-weight:bold;vertical-align:top;">is_shell</td><td style="vertical-align:top;">:</td><td><div>False</div></td></tr><tr><td style="font-weight:bold;vertical-align:top;">now</td><td style="vertical-align:top;">:</td><td><div>datetime.datetime(2016, 8, 27, 23, 18, 52, 593829)</div></td></tr><tr><td style="font-weight:bold;vertical-align:top;">raw_args</td><td style="vertical-align:top;">:</td><td><div></div></td></tr><tr><td style="font-weight:bold;vertical-align:top;">raw_extension</td><td style="vertical-align:top;">:</td><td><div>None</div></td></tr><tr><td style="font-weight:bold;vertical-align:top;">url</td><td style="vertical-align:top;">:</td><td><div>/datos/commands/system</div></td></tr><tr><td style="font-weight:bold;vertical-align:top;">utcnow</td><td style="vertical-align:top;">:</td><td><div>datetime.datetime(2016, 8, 28, 4, 18, 52, 593859)</div></td></tr><tr><td style="font-weight:bold;vertical-align:top;">wsgi</td><td style="vertical-align:top;">:</td><td><div>&lt;gluon.main.LazyWSGI object at 0x7f0ef6e589d0&gt;</div></td></tr></table></div>'
tRp58
sS'frames'
p59
(lp60
(dp61
S'file'
p62
S'/home/camilo/Escritorio/nuevo_nuevo_repo_git/proyecto_mv/gluon/restricted.py'
p63
sS'dump'
p64
(dp65
S'environment'
p66
S"{'A': <class 'gluon.html.A'>, 'ANY_OF': <class 'gluon.validators.ANY_OF'>, 'ASSIGNJS': <function ASSIGNJS>, 'AppConfig': <function AppConfig>, 'Auth': <class 'gluon.tools.Auth'>, 'B': <class 'gluon.html.B'>, 'BEAUTIFY': <class 'gluon.html.BEAUTIFY'>, 'BODY': <class 'gluon.html.BODY'>, 'BR': <class 'gluon.html.BR'>, 'BUTTON': <class 'gluon.html.BUTTON'>, ...}"
p67
sS'ccode'
p68
S'<code object <module> at 0x7f0ef6f5d3b0, file "/...ations/datos/views/commands/system.html", line 1>'
p69
ssS'lnum'
p70
I227
sS'lines'
p71
(dp72
I224
S'            ccode = code'
p73
sI225
S'        else:'
p74
sI226
S'            ccode = compile2(code, layer)'
p75
sI227
S'        exec ccode in environment'
p76
sI228
S'    except HTTP:'
p77
sI229
S'        raise'
p78
sI230
S'    except RestrictedError:'
p79
sI231
S'        # do not encapsulate (obfuscate) the original RestrictedError'
p80
sI222
S'    try:'
p81
sI223
S'        if isinstance(code, types.CodeType):'
p82
ssS'call'
p83
S'(code=\'response.write(\\\'<!DOCTYPE html>\\\\n<!--[if (gt IE ..."></script>\\\\n  </body>\\\\n</html>\\\\n\\\', escape=False)\', environment={\'A\': <class \'gluon.html.A\'>, \'ANY_OF\': <class \'gluon.validators.ANY_OF\'>, \'ASSIGNJS\': <function ASSIGNJS>, \'AppConfig\': <function AppConfig>, \'Auth\': <class \'gluon.tools.Auth\'>, \'B\': <class \'gluon.html.B\'>, \'BEAUTIFY\': <class \'gluon.html.BEAUTIFY\'>, \'BODY\': <class \'gluon.html.BODY\'>, \'BR\': <class \'gluon.html.BR\'>, \'BUTTON\': <class \'gluon.html.BUTTON\'>, ...}, layer=\'/home/camilo/Escritorio/nuevo_nuevo_repo_git/pro..._mv/applications/datos/views/commands/system.html\')'
p84
sS'func'
p85
S'restricted'
p86
sa(dp87
g62
S'/home/camilo/Escritorio/nuevo_nuevo_repo_git/proyecto_mv/applications/datos/views/commands/system.html'
p88
sg64
(dp89
sg70
I101
sg71
(dp90
I96
S'response.write(\'</li>\\n            <li><a href="\', escape=False)'
p91
sI97
S"response.write(URL('maquinas','mostrar', vars=dict(accion= 'install_package')))"
p92
sI98
S'response.write(\'">\', escape=False)'
p93
sI99
S"response.write(T('Install Packages'))"
p94
sI100
S'response.write(\'</a></li>\\n          <li class="divider"></li>\\n            \\n          <li class="dropdown-header">\', escape=False)'
p95
sI101
S'response.write(T(Repositories))'
p96
sI102
S'response.write(\'</li>\\n            <li><a href="#">JavaScript</a></li>\\n            <li><a href="#">About Us</a></li>\\n        </ul>\\n    </div>\\n         \\n    <a href="\', escape=False)'
p97
sI103
S"response.write(URL('maquinas','mostrar', vars=dict(accion= 'remove_packages')))"
p98
sI104
S'response.write(\'">\\n        <button class= \\\'btn btn-default btn-lg\\\'> \', escape=False)'
p99
sI105
S"response.write(T('Remove packages'))"
p100
sI106
S'response.write(\' </button>\\n    </a>\\n         \\n    <a href="\', escape=False)'
p101
sI107
S"response.write(URL('maquinas','mostrar', vars=dict(accion= 'add_repo')))"
p102
sI108
S'response.write(\'">\\n        <button class= \\\'btn btn-default btn-lg\\\'> \', escape=False)'
p103
sI109
S"response.write(T('Add Repositories'))"
p104
sI110
S'response.write(\' </button>\\n    </a>\\n    \\n    <a href="\', escape=False)'
p105
sI111
S"response.write(URL('maquinas','mostrar', vars=dict(accion= 'remove_repo')))"
p106
sI92
S'response.write(\'</a></li>\\n    </div>\\n    \\n     <div class="dropdown">\\n        <button class="btn btn-default dropdown-toggle btn-lg" type="button" data-toggle="dropdown"\', escape=False)'
p107
sI93
S"response.write(T('Packages and repositories'))"
p108
sI94
S'response.write(\'\\n        <span class="caret"></span></button>\\n        <ul class="dropdown-menu">\\n          <li class="dropdown-header">\', escape=False)'
p109
sI95
S"response.write(T('Packages'))"
p110
ssg83
S'()'
p111
sg85
S'<module>'
p112
sasS'pyver'
p113
S'Python 2.7.12: /home/camilo/miniconda2/bin/python (prefix: /home/camilo/miniconda2)'
p114
sS'session'
p115
g57
(S's\xd3\t\x00\x00<div><table><tr><td style="font-weight:bold;vertical-align:top;">ACTIONS</td><td style="vertical-align:top;">:</td><td><div><table><tr><td><div>Restart</div></td></tr><tr><td><div>Add user</div></td></tr></table></div></td></tr><tr><td style="font-weight:bold;vertical-align:top;">auth</td><td style="vertical-align:top;">:</td><td><div><table><tr><td style="font-weight:bold;vertical-align:top;">expiration</td><td style="vertical-align:top;">:</td><td><div>3600</div></td></tr><tr><td style="font-weight:bold;vertical-align:top;">hmac_key</td><td style="vertical-align:top;">:</td><td><div>76c27926-3737-4786-911b-ee394856f4d5</div></td></tr><tr><td style="font-weight:bold;vertical-align:top;">last_visit</td><td style="vertical-align:top;">:</td><td><div>datetime.datetime(2016, 8, 27, 23, 14, 17, 348430)</div></td></tr><tr><td style="font-weight:bold;vertical-align:top;">remember_me</td><td style="vertical-align:top;">:</td><td><div>False</div></td></tr><tr><td style="font-weight:bold;vertical-align:top;">user</td><td style="vertical-align:top;">:</td><td><div><table><tr><td style="font-weight:bold;vertical-align:top;">email</td><td style="vertical-align:top;">:</td><td><div>admin@correo.com</div></td></tr><tr><td style="font-weight:bold;vertical-align:top;">first_name</td><td style="vertical-align:top;">:</td><td><div>Administrador</div></td></tr><tr><td style="font-weight:bold;vertical-align:top;">id</td><td style="vertical-align:top;">:</td><td><div>1L</div></td></tr><tr><td style="font-weight:bold;vertical-align:top;">last_name</td><td style="vertical-align:top;">:</td><td><div>DelSistema</div></td></tr><tr><td style="font-weight:bold;vertical-align:top;">registration_id</td><td style="vertical-align:top;">:</td><td><div></div></td></tr><tr><td style="font-weight:bold;vertical-align:top;">registration_key</td><td style="vertical-align:top;">:</td><td><div></div></td></tr><tr><td style="font-weight:bold;vertical-align:top;">reset_password_key</td><td style="vertical-align:top;">:</td><td><div></div></td></tr></table></div></td></tr><tr><td style="font-weight:bold;vertical-align:top;">user_groups</td><td style="vertical-align:top;">:</td><td><div><table><tr><td style="font-weight:bold;vertical-align:top;">1</td><td style="vertical-align:top;">:</td><td><div>Administrador</div></td></tr></table></div></td></tr></table></div></td></tr><tr><td style="font-weight:bold;vertical-align:top;">flash</td><td style="vertical-align:top;">:</td><td><div>None</div></td></tr></table></div>'
tRp116
sS'etype'
p117
S"<type 'exceptions.NameError'>"
p118
sS'date'
p119
S'Sat Aug 27 23:18:52 2016'
p120
sS'response'
p121
g57
(S's//\x00\x00<div><table><tr><td style="font-weight:bold;vertical-align:top;">body</td><td style="vertical-align:top;">:</td><td><div>&lt;cStringIO.StringO object at 0x7f0ef70bb298&gt;</div></td></tr><tr><td style="font-weight:bold;vertical-align:top;">cookies</td><td style="vertical-align:top;">:</td><td><div><table><tr><td style="font-weight:bold;vertical-align:top;">session_id_datos</td><td style="vertical-align:top;">:</td><td><div>127.0.0.1-5b2bbde6-32e3-4ba5-a17d-94319e7b5424<table><tr><td style="font-weight:bold;vertical-align:top;">comment</td><td style="vertical-align:top;">:</td><td><div></div></td></tr><tr><td style="font-weight:bold;vertical-align:top;">domain</td><td style="vertical-align:top;">:</td><td><div></div></td></tr><tr><td style="font-weight:bold;vertical-align:top;">expires</td><td style="vertical-align:top;">:</td><td><div></div></td></tr><tr><td style="font-weight:bold;vertical-align:top;">httponly</td><td style="vertical-align:top;">:</td><td><div></div></td></tr><tr><td style="font-weight:bold;vertical-align:top;">max-age</td><td style="vertical-align:top;">:</td><td><div></div></td></tr><tr><td style="font-weight:bold;vertical-align:top;">path</td><td style="vertical-align:top;">:</td><td><div>/</div></td></tr><tr><td style="font-weight:bold;vertical-align:top;">secure</td><td style="vertical-align:top;">:</td><td><div></div></td></tr><tr><td style="font-weight:bold;vertical-align:top;">version</td><td style="vertical-align:top;">:</td><td><div></div></td></tr></table></div></td></tr></table></div></td></tr><tr><td style="font-weight:bold;vertical-align:top;">delimiters</td><td style="vertical-align:top;">:</td><td><div><table><tr><td><div>{{</div></td></tr><tr><td><div>}}</div></td></tr></table></div></td></tr><tr><td style="font-weight:bold;vertical-align:top;">files</td><td style="vertical-align:top;">:</td><td><div><table><tr><td><div>/datos/static/js/jquery.js</div></td></tr><tr><td><div>/datos/static/css/calendar.css</div></td></tr><tr><td><div>/datos/static/js/calendar.js</div></td></tr><tr><td><div>/datos/static/js/web2py.js</div></td></tr></table></div></td></tr><tr><td style="font-weight:bold;vertical-align:top;">flash</td><td style="vertical-align:top;">:</td><td><div></div></td></tr><tr><td style="font-weight:bold;vertical-align:top;">form_label_separator</td><td style="vertical-align:top;">:</td><td><div></div></td></tr><tr><td style="font-weight:bold;vertical-align:top;">formstyle</td><td style="vertical-align:top;">:</td><td><div>bootstrap3_inline</div></td></tr><tr><td style="font-weight:bold;vertical-align:top;">generic_patterns</td><td style="vertical-align:top;">:</td><td><div><table><tr><td><div>*</div></td></tr></table></div></td></tr><tr><td style="font-weight:bold;vertical-align:top;">google_analytics_id</td><td style="vertical-align:top;">:</td><td><div>None</div></td></tr><tr><td style="font-weight:bold;vertical-align:top;">headers</td><td style="vertical-align:top;">:</td><td><div><table><tr><td style="font-weight:bold;vertical-align:top;">X-Powered-By</td><td style="vertical-align:top;">:</td><td><div>web2py</div></td></tr></table></div></td></tr><tr><td style="font-weight:bold;vertical-align:top;">logo</td><td style="vertical-align:top;">:</td><td><div><a class="navbar-brand" href="/datos/default/index" id="pmv_logo"><b>VM-UD</b>&trade;&nbsp;</a></div></td></tr><tr><td style="font-weight:bold;vertical-align:top;">menu</td><td style="vertical-align:top;">:</td><td><div><table><tr><td><div><table><tr><td><div>Accueil</div></td></tr><tr><td><div>False</div></td></tr><tr><td><div>/datos/default/index</div></td></tr><tr><td><div><table></table></div></td></tr></table></div></td></tr><tr><td><div><table><tr><td><div>Approval</div></td></tr><tr><td><div>False</div></td></tr><tr><td><div>#</div></td></tr><tr><td><div><table><tr><td><div><table><tr><td><div>Teacher</div></td></tr><tr><td><div>False</div></td></tr><tr><td><div>/datos/academia/agree_teacher</div></td></tr></table></div></td></tr></table></div></td></tr></table></div></td></tr><tr><td><div><table><tr><td><div>To register</div></td></tr><tr><td><div>False</div></td></tr><tr><td><div>#</div></td></tr><tr><td><div><table><tr><td><div><table><tr><td><div>Course</div></td></tr><tr><td><div>False</div></td></tr><tr><td><div>/datos/academia/register_course</div></td></tr></table></div></td></tr><tr><td><div><table><tr><td><div>Machine</div></td></tr><tr><td><div>False</div></td></tr><tr><td><div>/datos/academia/register_machine</div></td></tr></table></div></td></tr><tr><td><div><table><tr><td><div>Group</div></td></tr><tr><td><div>False</div></td></tr><tr><td><div>/datos/academia/register_group</div></td></tr></table></div></td></tr></table></div></td></tr></table></div></td></tr><tr><td><div><table><tr><td><div>Consult</div></td></tr><tr><td><div>False</div></td></tr><tr><td><div>#</div></td></tr><tr><td><div><table><tr><td><div><table><tr><td><div>Files</div></td></tr><tr><td><div>False</div></td></tr><tr><td><div>/datos/academia/list_files</div></td></tr></table></div></td></tr><tr><td><div><table><tr><td><div>My jobs</div></td></tr><tr><td><div>False</div></td></tr><tr><td><div>/datos/tasks/index</div></td></tr></table></div></td></tr><tr><td><div><table><tr><td><div>Running Services</div></td></tr><tr><td><div>False</div></td></tr><tr><td><div>/datos/maquinas/mostrar?accion=services</div></td></tr></table></div></td></tr><tr><td><div><table><tr><td><div>Open ports</div></td></tr><tr><td><div>False</div></td></tr><tr><td><div>/datos/maquinas/mostrar?accion=ports</div></td></tr></table></div></td></tr></table></div></td></tr></table></div></td></tr><tr><td><div><table><tr><td><div>Quick Commands</div></td></tr><tr><td><div>False</div></td></tr><tr><td><div>#</div></td></tr><tr><td><div><table><tr><td><div><table><tr><td><div>Reboot System</div></td></tr><tr><td><div>False</div></td></tr><tr><td><div>/datos/maquinas/mostrar?accion=reboot</div></td></tr></table></div></td></tr><tr><td><div><table><tr><td><div>Enable SSH access and install vnc</div></td></tr><tr><td><div>False</div></td></tr><tr><td><div>/datos/maquinas/mostrar?accion=first_time</div></td></tr></table></div></td></tr><tr><td><div><table><tr><td><div>Enable vnc (First create users)</div></td></tr><tr><td><div>False</div></td></tr><tr><td><div>/datos/maquinas/mostrar?accion=enable_vnc_ports</div></td></tr></table></div></td></tr></table></div></td></tr></table></div></td></tr><tr><td><div><table><tr><td><div>Commands</div></td></tr><tr><td><div>False</div></td></tr><tr><td><div>#</div></td></tr><tr><td><div><table><tr><td><div><table><tr><td><div>Users</div></td></tr><tr><td><div>False</div></td></tr><tr><td><div>/datos/commands/users</div></td></tr></table></div></td></tr><tr><td><div><table><tr><td><div>System</div></td></tr><tr><td><div>False</div></td></tr><tr><td><div>/datos/commands/system</div></td></tr></table></div></td></tr><tr><td><div><table><tr><td><div>Files</div></td></tr><tr><td><div>False</div></td></tr><tr><td><div>/datos/commands/files</div></td></tr></table></div></td></tr></table></div></td></tr></table></div></td></tr><tr><td><div><table><tr><td><div>DB</div></td></tr><tr><td><div>False</div></td></tr><tr><td><div>#</div></td></tr><tr><td><div><table><tr><td><div><table><tr><td><div>Courses and Groups</div></td></tr><tr><td><div>False</div></td></tr><tr><td><div>/datos/maquinas/lista_maquina_grupo</div></td></tr></table></div></td></tr><tr><td><div><table><tr><td><div>Machines by course</div></td></tr><tr><td><div>False</div></td></tr><tr><td><div>/datos/maquinas/lista_maquina_materia</div></td></tr></table></div></td></tr><tr><td><div><table><tr><td><div>Teachers</div></td></tr><tr><td><div>False</div></td></tr><tr><td><div>/datos/admin/teachers</div></td></tr></table></div></td></tr></table></div></td></tr></table></div></td></tr></table></div></td></tr><tr><td style="font-weight:bold;vertical-align:top;">meta</td><td style="vertical-align:top;">:</td><td><div><table><tr><td style="font-weight:bold;vertical-align:top;">author</td><td style="vertical-align:top;">:</td><td><div>Carlos  &lt;suarezsilvestre1@gmail.com&gt; Camilo &lt;urrego@outlook.com&gt;</div></td></tr><tr><td style="font-weight:bold;vertical-align:top;">description</td><td style="vertical-align:top;">:</td><td><div>a cool new app</div></td></tr><tr><td style="font-weight:bold;vertical-align:top;">generator</td><td style="vertical-align:top;">:</td><td><div>Web2py Web Framework</div></td></tr><tr><td style="font-weight:bold;vertical-align:top;">keywords</td><td style="vertical-align:top;">:</td><td><div>web2py, python, framework</div></td></tr></table></div></td></tr><tr><td style="font-weight:bold;vertical-align:top;">models_to_run</td><td style="vertical-align:top;">:</td><td><div><table><tr><td><div>^\\w+\\.py$</div></td></tr><tr><td><div>^commands/\\w+\\.py$</div></td></tr><tr><td><div>^commands/system/\\w+\\.py$</div></td></tr></table></div></td></tr><tr><td style="font-weight:bold;vertical-align:top;">postprocessing</td><td style="vertical-align:top;">:</td><td><div><table></table></div></td></tr><tr><td style="font-weight:bold;vertical-align:top;">session_client</td><td style="vertical-align:top;">:</td><td><div>127.0.0.1</div></td></tr><tr><td style="font-weight:bold;vertical-align:top;">session_cookie_compression_level</td><td style="vertical-align:top;">:</td><td><div>None</div></td></tr><tr><td style="font-weight:bold;vertical-align:top;">session_cookie_expires</td><td style="vertical-align:top;">:</td><td><div>None</div></td></tr><tr><td style="font-weight:bold;vertical-align:top;">session_cookie_key</td><td style="vertical-align:top;">:</td><td><div>None</div></td></tr><tr><td style="font-weight:bold;vertical-align:top;">session_data_name</td><td style="vertical-align:top;">:</td><td><div>session_data_datos</div></td></tr><tr><td style="font-weight:bold;vertical-align:top;">session_file</td><td style="vertical-align:top;">:</td><td><div>&lt;open file &#x27;/home/camilo/Escritorio/nuevo_nuevo_repo_git/proyecto_mv/applications/datos/sessions/121/1bc/127.0.0.1-5b2bbde6-32e3-4ba5-a17d-94319e7b5424&#x27;, mode &#x27;rb+&#x27; at 0x7f0ef7533150&gt;</div></td></tr><tr><td style="font-weight:bold;vertical-align:top;">session_filename</td><td style="vertical-align:top;">:</td><td><div>/home/camilo/Escritorio/nuevo_nuevo_repo_git/proyecto_mv/applications/datos/sessions/127.0.0.1-5b2bbde6-32e3-4ba5-a17d-94319e7b5424</div></td></tr><tr><td style="font-weight:bold;vertical-align:top;">session_hash</td><td style="vertical-align:top;">:</td><td><div>7382703f192673e2f368d2996414ef35</div></td></tr><tr><td style="font-weight:bold;vertical-align:top;">session_id</td><td style="vertical-align:top;">:</td><td><div>127.0.0.1-5b2bbde6-32e3-4ba5-a17d-94319e7b5424</div></td></tr><tr><td style="font-weight:bold;vertical-align:top;">session_id_name</td><td style="vertical-align:top;">:</td><td><div>session_id_datos</div></td></tr><tr><td style="font-weight:bold;vertical-align:top;">session_locked</td><td style="vertical-align:top;">:</td><td><div>True</div></td></tr><tr><td style="font-weight:bold;vertical-align:top;">session_masterapp</td><td style="vertical-align:top;">:</td><td><div>datos</div></td></tr><tr><td style="font-weight:bold;vertical-align:top;">session_new</td><td style="vertical-align:top;">:</td><td><div>False</div></td></tr><tr><td style="font-weight:bold;vertical-align:top;">session_storage_type</td><td style="vertical-align:top;">:</td><td><div>file</div></td></tr><tr><td style="font-weight:bold;vertical-align:top;">status</td><td style="vertical-align:top;">:</td><td><div>200</div></td></tr><tr><td style="font-weight:bold;vertical-align:top;">subtitle</td><td style="vertical-align:top;">:</td><td><div></div></td></tr><tr><td style="font-weight:bold;vertical-align:top;">title</td><td style="vertical-align:top;">:</td><td><div>Datos</div></td></tr><tr><td style="font-weight:bold;vertical-align:top;">view</td><td style="vertical-align:top;">:</td><td><div>commands/system.html</div></td></tr></table></div>'
tRp122
sS'locals'
p123
(dp124
S'Service'
p125
S"<class 'gluon.tools.Service'>"
p126
sS'OBJECT'
p127
S"<class 'gluon.html.OBJECT'>"
p128
sS'SQLDB'
p129
S"<class 'pydal.base.DAL'>"
p130
sg115
S"<Storage {'_auth_next': None, 'flash': None, '_f...gin]': ['ae54f8b9-6a1d-4c4a-9b1d-7b05f1c10ad8']}>"
p131
sS'LINK'
p132
S"<class 'gluon.html.LINK'>"
p133
sS'playbook'
p134
S'<function playbook>'
p135
sS'BR'
p136
S"<class 'gluon.html.BR'>"
p137
sS'local_import'
p138
S'<function <lambda>>'
p139
sS'OPTGROUP'
p140
S"<class 'gluon.html.OPTGROUP'>"
p141
sS'__package__'
p142
S'None'
p143
sS'PROCESSOR'
p144
S"['1', '2', '3', '4', '5', '6', '7', '8', '9', '10', <lazyT 'Other'>]"
p145
sS'row'
p146
S"<Row {'group_id': 1L, 'user_id': 1L, 'id': 1L}>"
p147
sS'PRE'
p148
S"<class 'gluon.html.PRE'>"
p149
sS'IS_INT_IN_RANGE'
p150
S"<class 'gluon.validators.IS_INT_IN_RANGE'>"
p151
sS'buscar_tarea_debug'
p152
S'<function buscar_tarea_debug>'
p153
sS'IS_LOWER'
p154
S"<class 'gluon.validators.IS_LOWER'>"
p155
sS'IS_STRONG'
p156
S"<class 'gluon.validators.IS_STRONG'>"
p157
sS'cache'
p158
S'<gluon.cache.Cache object>'
p159
sS'IS_IN_DB'
p160
S"<class 'gluon.validators.IS_IN_DB'>"
p161
sS'RAM_MEMORY'
p162
S"['512MB', '1024MB', '2048MB', '3072MB', '4096MB', '5120MB', '6144MB', '7168MB', '8192MB', '9216MB', '10240MB', <lazyT 'Other MB'>]"
p163
sS'yaml'
p164
S"<module 'yaml' from '/home/camilo/miniconda2/lib/python2.7/site-packages/yaml/__init__.pyc'>"
p165
sS'TAG'
p166
S'<gluon.html.__TAG__ object>'
p167
sS'Scheduler'
p168
S"<class 'gluon.scheduler.Scheduler'>"
p169
sS'SQLField'
p170
S"<class 'pydal.objects.Field'>"
p171
sS'mail'
p172
S'<gluon.tools.Mail object>'
p173
sS'BODY'
p174
S"<class 'gluon.html.BODY'>"
p175
sS'IS_DATE_IN_RANGE'
p176
S"<class 'gluon.validators.IS_DATE_IN_RANGE'>"
p177
sS'IFRAME'
p178
S"<class 'gluon.html.IFRAME'>"
p179
sS'URL'
p180
S'<function URL>'
p181
sS'__file__'
p182
S"'/home/camilo/Escritorio/nuevo_nuevo_repo_git/pro..._mv/applications/datos/views/commands/system.html'"
p183
sS'auth'
p184
S'<gluon.tools.Auth object>'
p185
sS'P'
S"<class 'gluon.html.P'>"
p186
sS'TFOOT'
p187
S"<class 'gluon.html.TFOOT'>"
p188
sS'scheduler'
p189
S'<Scheduler(Thread-84, initial daemon)>'
p190
sS'db1'
p191
S'<DAL uri="postgres:******@localhost/test3">'
p192
sS'XHTML'
p193
S"<class 'gluon.html.XHTML'>"
p194
sS'subprocess'
p195
S"<module 'subprocess' from '/home/camilo/miniconda2/lib/python2.7/subprocess.pyc'>"
p196
sS'ON'
p197
S'True'
p198
sS'macxuser'
p199
S'[]'
p200
sS'OL'
p201
S"<class 'gluon.html.OL'>"
p202
sS'TEXTAREA'
p203
S"<class 'gluon.html.TEXTAREA'>"
p204
sS'MENU'
p205
S"<class 'gluon.html.MENU'>"
p206
sS'HOSTNAME'
p207
S'[]'
p208
sS'courses'
p209
S'<Set (course_group.cod_course IS NULL)>'
p210
sS'IS_IMAGE'
p211
S"<class 'gluon.validators.IS_IMAGE'>"
p212
sS'EM'
p213
S"<class 'gluon.html.EM'>"
p214
sS'CODE'
p215
S"<class 'gluon.html.CODE'>"
p216
sS'GROUP'
p217
S"['51', '52', '61', '62']"
p218
sS'HR'
p219
S"<class 'gluon.html.HR'>"
p220
sS'cargar_variables'
p221
S'<function cargar_variables>'
p222
sS'IS_DATETIME'
p223
S"<class 'gluon.validators.IS_DATETIME'>"
p224
sS'STYLE'
p225
S"<class 'gluon.html.STYLE'>"
p226
sS'LABEL'
p227
S"<class 'gluon.html.LABEL'>"
p228
sS'escribir_variables_json'
p229
S'<function escribir_variables_json>'
p230
sS'CLEANUP'
p231
S"<class 'gluon.validators.CLEANUP'>"
p232
sS'plugins'
p233
S'<gluon.tools.PluginManager object>'
p234
sS'INPUT'
p235
S"<class 'gluon.html.INPUT'>"
p236
sS'SELECT'
p237
S"<class 'gluon.html.SELECT'>"
p238
sS'CENTER'
p239
S"<class 'gluon.html.CENTER'>"
p240
sS'Auth'
p241
S"<class 'gluon.tools.Auth'>"
p242
sS'DEVELOPMENT_MENU'
p243
S'False'
p244
sS'__builtins__'
p245
S"{'ArithmeticError': <type 'exceptions.ArithmeticError'>, 'AssertionError': <type 'exceptions.AssertionError'>, 'AttributeError': <type 'exceptions.AttributeError'>, 'BaseException': <type 'exceptions.BaseException'>, 'BufferError': <type 'exceptions.BufferError'>, 'BytesWarning': <type 'exceptions.BytesWarning'>, 'DeprecationWarning': <type 'exceptions.DeprecationWarning'>, 'EOFError': <type 'exceptions.EOFError'>, 'Ellipsis': Ellipsis, 'EnvironmentError': <type 'exceptions.EnvironmentError'>, ...}"
p246
sS'HTML'
p247
S"<class 'gluon.html.HTML'>"
p248
sS'SQLFORM'
p249
S"<class 'gluon.sqlhtml.SQLFORM'>"
p250
sS'adminis'
p251
S'<Rows (1)>'
p252
sS'LOAD'
p253
S'<function LOAD>'
p254
sS'redirect'
p255
S'<function redirect>'
p256
sS'FIELDSET'
p257
S"<class 'gluon.html.FIELDSET'>"
p258
sS'ast'
p259
S"<module 'ast' from '/home/camilo/miniconda2/lib/python2.7/ast.pyc'>"
p260
sS'IS_EQUAL_TO'
p261
S"<class 'gluon.validators.IS_EQUAL_TO'>"
p262
sS'embed64'
p263
S'<function embed64>'
p264
sS'IS_LIST_OF'
p265
S"<class 'gluon.validators.IS_LIST_OF'>"
p266
sS'left_sidebar_enabled'
p267
g244
sS'EMBED'
p268
S"<class 'gluon.html.EMBED'>"
p269
sS'separar_resultados'
p270
S'<function separar_resultados>'
p271
sS'_'
S'<function _>'
p272
sS'myconf'
p273
S"{'forms': {'formstyle': 'bootstrap3_inline', 'se...tre1@gmail.com', 'server': 'smtp.gmail.com:587'}}"
p274
sS'H2'
p275
S"<class 'gluon.html.H2'>"
p276
sS'H3'
p277
S"<class 'gluon.html.H3'>"
p278
sS'AppConfig'
p279
S'<function AppConfig>'
p280
sS'H1'
p281
S"<class 'gluon.html.H1'>"
p282
sS'H6'
p283
S"<class 'gluon.html.H6'>"
p284
sS'H4'
p285
S"<class 'gluon.html.H4'>"
p286
sS'H5'
p287
S"<class 'gluon.html.H5'>"
p288
sS'UL'
p289
S"<class 'gluon.html.UL'>"
p290
sS'IS_UPPER'
p291
S"<class 'gluon.validators.IS_UPPER'>"
p292
sS'guardar_debug'
p293
S'<function guardar_debug>'
p294
sS'IS_TIME'
p295
S"<class 'gluon.validators.IS_TIME'>"
p296
sS'os'
p297
S"<module 'os' from '/home/camilo/miniconda2/lib/python2.7/os.pyc'>"
p298
sS'OPTION'
p299
S"<class 'gluon.html.OPTION'>"
p300
sS'TITLE'
p301
S"<class 'gluon.html.TITLE'>"
p302
sS'CRYPT'
p303
S"<class 'gluon.validators.CRYPT'>"
p304
sS'IS_EMPTY_OR'
p305
S"<class 'gluon.validators.IS_EMPTY_OR'>"
p306
sS'MARKMIN'
p307
S"<class 'gluon.html.MARKMIN'>"
p308
sS'ASSIGNJS'
p309
S'<function ASSIGNJS>'
p310
sS'__name__'
p311
S"'__restricted__'"
p312
sS'HTTP'
p313
S"<class 'gluon.http.HTTP'>"
p314
sS'STRONG'
p315
S"<class 'gluon.html.STRONG'>"
p316
sS'COL'
p317
S"<class 'gluon.html.COL'>"
p318
sS'mc1'
p319
S"'col-md-9'"
p320
sS'mc0'
p321
S"'col-md-12'"
p322
sS'service'
p323
S'<gluon.tools.Service object>'
p324
sS'SCRIPT'
p325
S"<class 'gluon.html.SCRIPT'>"
p326
sS'leer_debug_puertos'
p327
S'<function leer_debug_puertos>'
p328
sS'json'
p329
S"<module 'json' from '/home/camilo/miniconda2/lib/python2.7/json/__init__.pyc'>"
p330
sS'escribir_variables_yml'
p331
S'<function escribir_variables_yml>'
p332
sS'TABLE'
p333
S"<class 'gluon.html.TABLE'>"
p334
sS'buscar_tarea_resumen'
p335
S'<function buscar_tarea_resumen>'
p336
sS'IS_IPV4'
p337
S"<class 'gluon.validators.IS_IPV4'>"
p338
sS'IS_LENGTH'
p339
S"<class 'gluon.validators.IS_LENGTH'>"
p340
sS'IS_IPV6'
p341
S"<class 'gluon.validators.IS_IPV6'>"
p342
sS'XML'
p343
S"<class 'gluon.html.XML'>"
p344
sS'B'
S"<class 'gluon.html.B'>"
p345
sS'couxuser'
p346
S'[]'
p347
sS'IMG'
p348
S"<class 'gluon.html.IMG'>"
p349
sS'SQLTABLE'
p350
S"<class 'gluon.sqlhtml.SQLTABLE'>"
p351
sS'IS_MATCH'
p352
S"<class 'gluon.validators.IS_MATCH'>"
p353
sS'STR_DAL'
p354
S"'postgres://postgres:1234@localhost/test3'"
p355
sS'IS_ALPHANUMERIC'
p356
S"<class 'gluon.validators.IS_ALPHANUMERIC'>"
p357
sS'leer_debug_servicios'
p358
S'<function leer_debug_servicios>'
p359
sS'SPAN'
p360
S"<class 'gluon.html.SPAN'>"
p361
sS'IS_JSON'
p362
S"<class 'gluon.validators.IS_JSON'>"
p363
sS'IS_IPADDRESS'
p364
S"<class 'gluon.validators.IS_IPADDRESS'>"
p365
sS'crear_inventario'
p366
S'<function crear_inventario>'
p367
sS'P_HOST'
p368
S"['5901', '5902', '5903', '5904', '5905', '5906', '5907', '5908', '5909', '5910', '5911', '5912', '5913', '5914', '5915', '5916']"
p369
sS'IS_SLUG'
p370
S"<class 'gluon.validators.IS_SLUG'>"
p371
sS'OPERA_SYSTEM'
p372
S"['Fedora', 'CentOS', 'Ubuntu', 'Kali', 'Windows', <lazyT 'Other'>]"
p373
sS'BEAUTIFY'
p374
S"<class 'gluon.html.BEAUTIFY'>"
p375
sS'META'
p376
S"<class 'gluon.html.META'>"
p377
sS'BUTTON'
p378
S"<class 'gluon.html.BUTTON'>"
p379
sS'IS_DATE'
p380
S"<class 'gluon.validators.IS_DATE'>"
p381
sS'IS_EMAIL'
p382
S"<class 'gluon.validators.IS_EMAIL'>"
p383
sS'middle_column'
p384
S"'col-md-12'"
p385
sS'IS_NOT_EMPTY'
p386
S"<class 'gluon.validators.IS_NOT_EMPTY'>"
p387
sS'IS_FLOAT_IN_RANGE'
p388
S"<class 'gluon.validators.IS_FLOAT_IN_RANGE'>"
p389
sS'TBODY'
p390
S"<class 'gluon.html.TBODY'>"
p391
sS'CAT'
p392
S"<class 'gluon.html.CAT'>"
p393
sS'Field'
p394
S"<class 'pydal.objects.Field'>"
p395
sS'mc2'
p396
S"'col-md-6'"
p397
sS'IS_LIST_OF_EMAILS'
p398
S"<class 'gluon.validators.IS_LIST_OF_EMAILS'>"
p399
sS'DIV'
p400
S"<class 'gluon.html.DIV'>"
p401
sS'LEGEND'
p402
S"<class 'gluon.html.LEGEND'>"
p403
sS'guardar_resumen'
p404
S'<function guardar_resumen>'
p405
sS'COLGROUP'
p406
S"<class 'gluon.html.COLGROUP'>"
p407
sS'DAL'
p408
S"<class 'pydal.base.DAL'>"
p409
sS'TT'
p410
S"<class 'gluon.html.TT'>"
p411
sS'TR'
p412
S"<class 'gluon.html.TR'>"
p413
sS'mig'
p414
g244
sS'LI'
p415
S"<class 'gluon.html.LI'>"
p416
sS'right_sidebar_enabled'
p417
g244
sS'TH'
p418
S"<class 'gluon.html.TH'>"
p419
sS'TD'
p420
S"<class 'gluon.html.TD'>"
p421
sS'PluginManager'
p422
S"<class 'gluon.tools.PluginManager'>"
p423
sS'IS_URL'
p424
S"<class 'gluon.validators.IS_URL'>"
p425
sS'A'
S"<class 'gluon.html.A'>"
p426
sS'HEAD'
p427
S"<class 'gluon.html.HEAD'>"
p428
sS'IS_DATETIME_IN_RANGE'
p429
S"<class 'gluon.validators.IS_DATETIME_IN_RANGE'>"
p430
sS'abrir_resumen'
p431
S'<function abrir_resumen>'
p432
sS'FORM'
p433
S"<class 'gluon.html.FORM'>"
p434
sS'I'
S"<class 'gluon.html.I'>"
p435
sS'xmlescape'
p436
S'<function xmlescape>'
p437
sS'IS_NOT_IN_DB'
p438
S"<class 'gluon.validators.IS_NOT_IN_DB'>"
p439
sS'SEMESTER'
p440
S"['2016-I', '2016-III', '2017-I', '2017-III', '2018-I', '2018-III', '2019-I', '2019-III', '2020-I', '2020-III', '2021-I', '2021-III', '2022-I', '2022-III', '2023-I', '2023-III', '2024-I', '2024-III', '2025-I', '2025-III']"
p441
sg121
S"<Storage {'body': <cStringIO.StringO object at 0...0x7f0ef6f78938>, 'view': 'commands/system.html'}>"
p442
sS'THEAD'
p443
S"<class 'gluon.html.THEAD'>"
p444
sS'ANY_OF'
p445
S"<class 'gluon.validators.ANY_OF'>"
p446
sS'IS_NULL_OR'
p447
S"<class 'gluon.validators.IS_EMPTY_OR'>"
p448
sg56
S"<Storage {'_vars': <Storage {}>, 'function': 'sy...nuevo_repo_git/proyecto_mv/applications/datos/'}>"
p449
sS'IS_EXPR'
p450
S"<class 'gluon.validators.IS_EXPR'>"
p451
sS'T'
S'<gluon.languages.translator object>'
p452
sS'IS_IN_SET'
p453
S"<class 'gluon.validators.IS_IN_SET'>"
p454
sS'IS_UPLOAD_FILENAME'
p455
S"<class 'gluon.validators.IS_UPLOAD_FILENAME'>"
p456
sS'escribir_host_yml'
p457
S'<function escribir_host_yml>'
p458
sS're'
p459
S"<module 're' from '/home/camilo/miniconda2/lib/python2.7/re.pyc'>"
p460
sS'IS_DECIMAL_IN_RANGE'
p461
S"<class 'gluon.validators.IS_DECIMAL_IN_RANGE'>"
p462
sssS'traceback'
p463
S'Traceback (most recent call last):\n  File "/home/camilo/Escritorio/nuevo_nuevo_repo_git/proyecto_mv/gluon/restricted.py", line 227, in restricted\n    exec ccode in environment\n  File "/home/camilo/Escritorio/nuevo_nuevo_repo_git/proyecto_mv/applications/datos/views/commands/system.html", line 101, in <module>\nNameError: name \'Repositories\' is not defined\n'
p464
s.