(dp1
S'output'
p2
S"<type 'exceptions.KeyError'> 'services'"
p3
sS'layer'
p4
S'/home/camilo/Escritorio/repo_git/proyecto_mv/applications/datos/views/tasks/resumen.html'
p5
sS'code'
p6
S'response.write(\'<!DOCTYPE html>\\n<!--[if (gt IE 9)|!(IE)]><!--> <html class="no-js" lang="\', escape=False)\nresponse.write(T.accepted_language or \'en\')\nresponse.write(\'"> <!--<![endif]-->\\n  <head>\\n    <meta charset="utf-8">\\n    <!-- www.phpied.com/conditional-comments-block-downloads/ -->\\n    <!-- Always force latest IE rendering engine\\n         (even in intranet) & Chrome Frame\\n         Remove this if you use the .htaccess -->\\n    <meta http-equiv="X-UA-Compatible" content="IE=edge\', escape=False)\nresponse.write(not request.is_local and \',chrome=1\' or \'\')\nresponse.write(\'">\\n    <!--  Mobile Viewport Fix\\n          j.mp/mobileviewport & davidbcalhoun.com/2010/viewport-metatag\\n          device-width: Occupy full width of the screen in its current orientation\\n          initial-scale = 1.0 retains dimensions instead of zooming out if page height > device height\\n          user-scalable = yes allows the user to zoom in -->\\n    <meta name="viewport" content="width=device-width, initial-scale=1.0">\\n    <title>\', escape=False)\nresponse.write(response.title or request.application)\nresponse.write(\'</title>\\n    <!-- http://dev.w3.org/html5/markup/meta.name.html -->\\n    <meta name="application-name" content="\', escape=False)\nresponse.write(request.application)\nresponse.write(\'">\\n    <!-- Speaking of Google, don\\\'t forget to set your site up:\\n         http://google.com/webmasters -->\\n    <meta name="google-site-verification" content="">\\n    <!-- include stylesheets -->\\n    <link rel="stylesheet" href="\', escape=False)\nresponse.write(URL(\'static\',\'css/bootstrap.min.css\'))\nresponse.write(\'"/>\\n    <link rel="stylesheet" href="\', escape=False)\nresponse.write(URL(\'static\',\'css/web2py-bootstrap3.css\'))\nresponse.write(\'"/>\\n    <link rel="shortcut icon" href="\', escape=False)\nresponse.write(URL(\'static\',\'images/favicon.ico\'))\nresponse.write(\'" type="image/x-icon">\\n    <link rel="apple-touch-icon" href="\', escape=False)\nresponse.write(URL(\'static\',\'images/favicon.png\'))\nresponse.write(\'">\\n    <!-- All JavaScript at the bottom, except for Modernizr which enables\\n         HTML5 elements & feature detects -->\\n    <script src="\', escape=False)\nresponse.write(URL(\'static\',\'js/modernizr-2.8.3.min.js\'))\nresponse.write(\'"></script>\\n    <!--[if lt IE 9]>\\n        <script src="\', escape=False)\nresponse.write(URL(\'static\',\'js/respond-1.4.2.min.js\'))\nresponse.write(\'"></script>\\n        <![endif]-->\\n    <!-- Favicons -->\\n    \', escape=False)\nresponse.write(\'<script type="text/javascript"><!--\\n    // These variables are used by the web2py_ajax_init function in web2py_ajax.js (which is loaded below).\\n    var w2p_ajax_confirm_message = "\', escape=False)\nresponse.write(T(\'Are you sure you want to delete this object?\'))\nresponse.write(\'";\\n    var w2p_ajax_disable_with_message = "\', escape=False)\nresponse.write(T(\'Working...\'))\nresponse.write(\'";\\n    var w2p_ajax_date_format = "\', escape=False)\nresponse.write(T(\'%Y-%m-%d\'))\nresponse.write(\'";\\n    var w2p_ajax_datetime_format = "\', escape=False)\nresponse.write(T(\'%Y-%m-%d %H:%M:%S\'))\nresponse.write(\'";\\n    var ajax_error_500 = \\\'\', escape=False)\nresponse.write(T.M(\'An error occured, please [[reload %s]] the page\') % URL(args=request.args, vars=request.get_vars))\nresponse.write("\'\\n    //--></script>\\n", escape=False)\nresponse.files.insert(0,URL(\'static\',\'js/jquery.js\'))\nresponse.files.insert(1,URL(\'static\',\'css/calendar.css\'))\nresponse.files.insert(2,URL(\'static\',\'js/calendar.js\'))\nresponse.files.insert(3,URL(\'static\',\'js/web2py.js\'))\nresponse.include_meta()\nresponse.include_files()\nresponse.write(\'\\n\', escape=False)\nresponse.write(\' <!-- this includes jquery.js, calendar.js/.css and web2py.js -->\\n    \', escape=False)\nresponse.write(\'\\n    \', escape=False)\n# using sidebars need to know what sidebar you want to use\nmc0 = \'col-md-12\'\nmc1 = \'col-md-9\'\nmc2 = \'col-md-6\'\nleft_sidebar_enabled = globals().get(\'left_sidebar_enabled\', False)\nright_sidebar_enabled = globals().get(\'right_sidebar_enabled\', False)\nmiddle_column = {0: mc0, 1: mc1, 2: mc2}[\n(left_sidebar_enabled and 1 or 0)+(right_sidebar_enabled and 1 or 0)]\nresponse.write(\'\\n  </head>\\n  <body>\\n    <!--[if lt IE 8]><p class="browserupgrade">You are using an <strong>outdated</strong> browser. Please <a href="http://browsehappy.com/">upgrade your browser</a> to improve your experience.</p><![endif]-->\\n    <div class="w2p_flash alert alert-dismissable">\', escape=False)\nresponse.write(response.flash or \'\')\nresponse.write(\'</div>\\n    <!-- Navbar ======================================= -->\\n    <nav class="navbar navbar-default navbar-fixed-top" role="navigation">\\n      <div class="container-fluid">\\n        <div class="navbar-header">\\n          <button type="button" class="navbar-toggle" data-toggle="collapse" data-target=".navbar-collapse">\\n            <span class="sr-only">Toggle navigation</span>\\n            <span class="icon-bar"></span>\\n            <span class="icon-bar"></span>\\n            <span class="icon-bar"></span>\\n          </button>\\n          \', escape=False)\nresponse.write(response.logo or \'\')\nresponse.write(\'\\n        </div>\\n        <div class="collapse navbar-collapse navbar-ex1-collapse">\\n          <ul class="nav navbar-nav navbar-right">\\n            \', escape=False)\nresponse.write(\'auth\' in globals() and auth.navbar(\'Welcome\',mode=\'dropdown\') or \'\')\nresponse.write(\'\\n          </ul>\\n          \', escape=False)\nif response.menu:\n    response.write(\'\\n          \', escape=False)\n    response.write(MENU(response.menu, _class=\'nav navbar-nav\',li_class=\'dropdown\',ul_class=\'dropdown-menu\'))\n    response.write(\'\\n          \', escape=False)\n    pass\nresponse.write(\'\\n        </div>\\n      </div>\\n    </nav>\\n    <!-- Masthead ===================================== -->    \\n    \', escape=False)\nresponse.write(\'\\n    \', escape=False)\nresponse.write(\'\\n    <!-- Main ========================================= -->\\n    <!-- Begin page content -->\\n    <div class="container-fluid main-container">\\n      \', escape=False)\nif left_sidebar_enabled:\n    response.write(\'\\n        <div class="col-md-3 left-sidebar">\\n            \', escape=False)\n    response.write(\'\\n            <h3>Left Sidebar</h3>\\n            <p></p>\\n            \', escape=False)\n    response.write(\'\\n        </div>\\n      \', escape=False)\n    pass\nresponse.write(\'\\n\\n      <div class="\', escape=False)\nresponse.write(middle_column)\nresponse.write(\'">\\n        \', escape=False)\nresponse.write(\'\\n        \', escape=False)\nresponse.write(\'\\n\\n<div class="modal-header">\\n        <button type="button" class="close" data-dismiss="modal" aria-label="Close"><span aria-hidden="true">&times;</span></button>\\n        <h1 class="modal-title">Tarea \', escape=False)\nresponse.write(job_name)\nresponse.write(\'</h1>\\n</div>\\n\\n\\n<div class="modal-body">\\n    <h3>\\n        \', escape=False)\nresponse.write(texto_summary)\nresponse.write(\'\\n    </h3>\\n    \', escape=False)\nresponse.write(grid)\nresponse.write(\'\\n    <br>\\n    <h3>\\n        \', escape=False)\nresponse.write(texto_summary_per_host)\nresponse.write(\'\\n    </h3>\\n    \\n    <table class="table table-hover">\\n        <thead>\\n          <tr>\\n            <th>IP</th>\\n            <th>OK</th>\\n            <th>Changed</th>\\n            <th>Unreachable</th>\\n            <th>Failed</th>\\n          </tr>\\n        </thead>\\n        \', escape=False)\nif existe_resumen == T(\'Yes\'):\n    response.write(\'\\n        <tbody>\\n            \', escape=False)\n    for pareja in resultados:\n        response.write(\'\\n            <tr>\\n                <td>\', escape=False)\n        response.write(pareja[0])\n        response.write(\'</td>\\n                <th>\', escape=False)\n        response.write(pareja[1]["ok"])\n        response.write(\'</th>\\n                <th>\', escape=False)\n        response.write(pareja[1]["changed"])\n        response.write(\'</th>\\n                <th>\', escape=False)\n        response.write(pareja[1]["unreachable"])\n        response.write(\'</th>\\n                <th>\', escape=False)\n        response.write(pareja[1]["failed"])\n        response.write(\'</th>\\n          </tr>\\n          \', escape=False)\n        pass\n    response.write(\'\\n        </tbody>\\n        \', escape=False)\nelse:\n    response.write(\'\\n            <tr>\\n                <td>\', escape=False)\n    response.write(resultados)\n    response.write(\'</td>\\n            </tr>\\n    \', escape=False)\n    pass\nresponse.write(\'\\n    </table> <! Fin del resumen por maquina -->\\n    \\n    \\n    <br>\\n    <h3>\\n        \', escape=False)\nresponse.write(texto_vars)\nresponse.write(\'\\n    </h3>\\n    \\n    <table class="table table-hover">\\n        <thead>\\n          <tr>\\n            <th>Variable</th>\\n            <th>Valor</th>\\n          </tr>\\n        </thead>\\n        \', escape=False)\nif variables != dict():\n    response.write(\'\\n        <tbody>\\n            \', escape=False)\n    for campo in variables:\n        response.write(\'\\n            <tr>\\n                <td>\', escape=False)\n        response.write(diccionario[campo])\n        response.write(\'</td>\\n                <th>\', escape=False)\n        response.write(variables[campo])\n        response.write(\'</th>\\n          </tr>\\n          \', escape=False)\n        pass\n    response.write(\'\\n        </tbody>\\n        \', escape=False)\nelse:\n    response.write(\'\\n            <tr>\\n                <td>\', escape=False)\n    response.write(T("There were no variables set for this job"))\n    response.write(\'</td>\\n            </tr>\\n    \', escape=False)\n    pass\nresponse.write(\'\\n    </table>\\n</div>\\n\\n\\n\', escape=False)\nif debug != dict():\n    response.write(\'\\n <br>\\n    <h3>\\n        \', escape=False)\n    response.write(T("Job Output"))\n    response.write(\'\\n    </h3>\\n    \', escape=False)\n    for ip in datos:\n        response.write(\'\\n        <div class="panel panel-success" id="system">\\n            <div class="panel-heading">\\n                <h2 class="panel-title">\', escape=False)\n        response.write(ip)\n        response.write(\'</h2>\\n            </div>\\n            <div class="panel-body">\\n                 <table class="table table-hover">\\n                    <thead>\\n                      <tr>\\n                        \', escape=False)\n        for cabeza in cabezas:\n            response.write(\'\\n                          <th>\', escape=False)\n            response.write(cabeza)\n            response.write(\'</th>\\n                        \', escape=False)\n            pass\n        response.write(\'\\n                      </tr>\\n                    </thead>\\n                     \\n                     \', escape=False)\n        lineas = datos[ip]\n        response.write(\'\\n                    <tbody>\\n                        \', escape=False)\n        for linea in lineas:\n            response.write(\'\\n                        <tr>\\n                            \', escape=False)\n            for campo in linea:\n                response.write(\'\\n                                <td>\', escape=False)\n                response.write(campo)\n                response.write(\'</td>\\n                            \', escape=False)\n                pass\n            response.write(\'\\n                        </tr>\\n                        \', escape=False)\n            pass\n        response.write(\'\\n                    </tbody>\\n                \', escape=False)\n        #pass\n        response.write(\'\\n                </table>\\n            </div>            \\n        </div>\\n    \', escape=False)\n        pass\n    response.write(\'\\n\\n\', escape=False)\n    pass\nresponse.write(\'\\n\\n\\n\\n<div class="modal-footer">\\n    \', escape=False)\nresponse.write(boton_volver)\nresponse.write(\'\\n    \', escape=False)\nresponse.write(boton_descargar)\nresponse.write(\'\\n</div>\\n\', escape=False)\n#=BEAUTIFY(response._vars)\nresponse.write(\'\\n\', escape=False)\nresponse.write(\'\\n        \', escape=False)\nresponse.write(\'\\n      </div>\\n\\n      \', escape=False)\nif right_sidebar_enabled:\n    response.write(\'\\n        <div class="col-md-3">\\n            \', escape=False)\n    response.write(\'\\n            <h3>Right Sidebar</h3>\\n            <p></p>\\n            \', escape=False)\n    response.write(\'\\n        </div>\\n      \', escape=False)\n    pass\nresponse.write(\'\\n\\n    </div>\\n\\n    \', escape=False)\nresponse.write(\' <!-- this is default footer -->      \\n    <footer class="footer">\\n      <div class="container-fluid">\\n        <div class="copyright pull-left">\', escape=False)\nresponse.write(T(\'Copyright\'))\nresponse.write(\' &#169; \', escape=False)\nresponse.write(request.now.year)\nresponse.write(\'</div>\\n          <div id="poweredBy" class="pull-right">\\n            \', escape=False)\nresponse.write(T(\'Powered by\'))\nresponse.write(\'\\n            <a href="http://www.web2py.com/">web2py</a>\\n          </div>\\n      </div>\\n    </footer>\\n    \', escape=False)\nresponse.write(\'\\n      \\n      \\n    <!-- The javascript =============================== -->\\n    <script src="\', escape=False)\nresponse.write(URL(\'static\',\'js/bootstrap.min.js\'))\nresponse.write(\'"></script>\\n    <script src="\', escape=False)\nresponse.write(URL(\'static\',\'js/web2py-bootstrap3.js\'))\nresponse.write(\'"></script>\\n    \', escape=False)\nresponse.write(\'\\n    \', escape=False)\nif response.google_analytics_id:\n    response.write(\'\\n    <!-- Analytics ==================================== -->\\n    <script src="\', escape=False)\n    response.write(URL(\'static\',\'js/analytics.min.js\'))\n    response.write(\'"></script>\\n    <script type="text/javascript">\\n      analytics.initialize({\\n      \\\'Google Analytics\\\':{trackingId:\\\'\', escape=False)\n    response.write(response.google_analytics_id)\n    response.write("\'}\\n      });\\n    </script>\\n    ", escape=False)\n    pass\nresponse.write(\'\\n    <!-- Share ============================y============ -->\\n    <script src="\', escape=False)\nresponse.write(URL(\'static\',\'js/share.js\',vars=dict(static=URL(\'static\',\'images\'))))\nresponse.write(\'"></script>\\n  </body>\\n</html>\\n\', escape=False)'
p7
sS'snapshot'
p8
(dp9
S'exception'
p10
(dp11
S'__hash__'
p12
S"<method-wrapper '__hash__' of exceptions.KeyError object>"
p13
sS'__setattr__'
p14
S"<method-wrapper '__setattr__' of exceptions.KeyError object>"
p15
sS'__reduce_ex__'
p16
S'<built-in method __reduce_ex__ of exceptions.KeyError object>'
p17
sS'__getslice__'
p18
S"<method-wrapper '__getslice__' of exceptions.KeyError object>"
p19
sS'__getitem__'
p20
S"<method-wrapper '__getitem__' of exceptions.KeyError object>"
p21
sS'__setstate__'
p22
S'<built-in method __setstate__ of exceptions.KeyError object>'
p23
sS'args'
p24
S"('services',)"
p25
sS'__reduce__'
p26
S'<built-in method __reduce__ of exceptions.KeyError object>'
p27
sS'__str__'
p28
S"<method-wrapper '__str__' of exceptions.KeyError object>"
p29
sS'__format__'
p30
S'<built-in method __format__ of exceptions.KeyError object>'
p31
sS'__getattribute__'
p32
S"<method-wrapper '__getattribute__' of exceptions.KeyError object>"
p33
sS'__class__'
p34
S"<type 'exceptions.KeyError'>"
p35
sS'__unicode__'
p36
S'<built-in method __unicode__ of exceptions.KeyError object>'
p37
sS'__delattr__'
p38
S"<method-wrapper '__delattr__' of exceptions.KeyError object>"
p39
sS'__subclasshook__'
p40
S'<built-in method __subclasshook__ of type object>'
p41
sS'__repr__'
p42
S"<method-wrapper '__repr__' of exceptions.KeyError object>"
p43
sS'__dict__'
p44
S'{}'
p45
sS'__sizeof__'
p46
S'<built-in method __sizeof__ of exceptions.KeyError object>'
p47
sS'__doc__'
p48
S"'Mapping key not found.'"
p49
sS'__init__'
p50
S"<method-wrapper '__init__' of exceptions.KeyError object>"
p51
sS'__new__'
p52
S'<built-in method __new__ of type object>'
p53
ssS'evalue'
p54
S"'services'"
p55
sS'request'
p56
cgluon.html
XML_unpickle
p57
(S's\xdc7\x00\x00<div><table><tr><td style="font-weight:bold;vertical-align:top;">ajax</td><td style="vertical-align:top;">:</td><td><div>False</div></td></tr><tr><td style="font-weight:bold;vertical-align:top;">application</td><td style="vertical-align:top;">:</td><td><div>datos</div></td></tr><tr><td style="font-weight:bold;vertical-align:top;">args</td><td style="vertical-align:top;">:</td><td><div><table><tr><td><div>2_144</div></td></tr></table></div></td></tr><tr><td style="font-weight:bold;vertical-align:top;">cid</td><td style="vertical-align:top;">:</td><td><div>None</div></td></tr><tr><td style="font-weight:bold;vertical-align:top;">client</td><td style="vertical-align:top;">:</td><td><div>127.0.0.1</div></td></tr><tr><td style="font-weight:bold;vertical-align:top;">controller</td><td style="vertical-align:top;">:</td><td><div>tasks</div></td></tr><tr><td style="font-weight:bold;vertical-align:top;">cookies</td><td style="vertical-align:top;">:</td><td><div><table><tr><td style="font-weight:bold;vertical-align:top;">session_id_admin</td><td style="vertical-align:top;">:</td><td><div>127.0.0.1-a1b6601d-ff1a-4a84-9a81-787d5ae26f37<table><tr><td style="font-weight:bold;vertical-align:top;">comment</td><td style="vertical-align:top;">:</td><td><div></div></td></tr><tr><td style="font-weight:bold;vertical-align:top;">domain</td><td style="vertical-align:top;">:</td><td><div></div></td></tr><tr><td style="font-weight:bold;vertical-align:top;">expires</td><td style="vertical-align:top;">:</td><td><div></div></td></tr><tr><td style="font-weight:bold;vertical-align:top;">httponly</td><td style="vertical-align:top;">:</td><td><div></div></td></tr><tr><td style="font-weight:bold;vertical-align:top;">max-age</td><td style="vertical-align:top;">:</td><td><div></div></td></tr><tr><td style="font-weight:bold;vertical-align:top;">path</td><td style="vertical-align:top;">:</td><td><div></div></td></tr><tr><td style="font-weight:bold;vertical-align:top;">secure</td><td style="vertical-align:top;">:</td><td><div></div></td></tr><tr><td style="font-weight:bold;vertical-align:top;">version</td><td style="vertical-align:top;">:</td><td><div></div></td></tr></table></div></td></tr><tr><td style="font-weight:bold;vertical-align:top;">session_id_datos</td><td style="vertical-align:top;">:</td><td><div>127.0.0.1-f2948e7f-9814-46d8-a44d-669d1e8e37dd<table><tr><td style="font-weight:bold;vertical-align:top;">comment</td><td style="vertical-align:top;">:</td><td><div></div></td></tr><tr><td style="font-weight:bold;vertical-align:top;">domain</td><td style="vertical-align:top;">:</td><td><div></div></td></tr><tr><td style="font-weight:bold;vertical-align:top;">expires</td><td style="vertical-align:top;">:</td><td><div></div></td></tr><tr><td style="font-weight:bold;vertical-align:top;">httponly</td><td style="vertical-align:top;">:</td><td><div></div></td></tr><tr><td style="font-weight:bold;vertical-align:top;">max-age</td><td style="vertical-align:top;">:</td><td><div></div></td></tr><tr><td style="font-weight:bold;vertical-align:top;">path</td><td style="vertical-align:top;">:</td><td><div></div></td></tr><tr><td style="font-weight:bold;vertical-align:top;">secure</td><td style="vertical-align:top;">:</td><td><div></div></td></tr><tr><td style="font-weight:bold;vertical-align:top;">version</td><td style="vertical-align:top;">:</td><td><div></div></td></tr></table></div></td></tr></table></div></td></tr><tr><td style="font-weight:bold;vertical-align:top;">env</td><td style="vertical-align:top;">:</td><td><div><table><tr><td style="font-weight:bold;vertical-align:top;">HTTP_ACCEPT</td><td style="vertical-align:top;">:</td><td><div>text/html,application/xhtml+xml,application/xml;q=0.9,*/*;q=0.8</div></td></tr><tr><td style="font-weight:bold;vertical-align:top;">HTTP_ACCEPT_ENCODING</td><td style="vertical-align:top;">:</td><td><div>gzip, deflate</div></td></tr><tr><td style="font-weight:bold;vertical-align:top;">HTTP_ACCEPT_LANGUAGE</td><td style="vertical-align:top;">:</td><td><div>es-CL,es;q=0.8,en-US;q=0.5,en;q=0.3</div></td></tr><tr><td style="font-weight:bold;vertical-align:top;">HTTP_CONNECTION</td><td style="vertical-align:top;">:</td><td><div>keep-alive</div></td></tr><tr><td style="font-weight:bold;vertical-align:top;">HTTP_COOKIE</td><td style="vertical-align:top;">:</td><td><div>session_id_datos=127.0.0.1-f2948e7f-9814-46d8-a44d-669d1e8e37dd; session_id_admin=127.0.0.1-a1b6601d-ff1a-4a84-9a81-787d5ae26f37</div></td></tr><tr><td style="font-weight:bold;vertical-align:top;">HTTP_HOST</td><td style="vertical-align:top;">:</td><td><div>127.0.0.1:3000</div></td></tr><tr><td style="font-weight:bold;vertical-align:top;">HTTP_USER_AGENT</td><td style="vertical-align:top;">:</td><td><div>Mozilla/5.0 (X11; Ubuntu; Linux x86_64; rv:44.0) Gecko/20100101 Firefox/44.0</div></td></tr><tr><td style="font-weight:bold;vertical-align:top;">PATH_INFO</td><td style="vertical-align:top;">:</td><td><div>/datos/tasks/resumen/2_144</div></td></tr><tr><td style="font-weight:bold;vertical-align:top;">QUERY_STRING</td><td style="vertical-align:top;">:</td><td><div></div></td></tr><tr><td style="font-weight:bold;vertical-align:top;">REMOTE_ADDR</td><td style="vertical-align:top;">:</td><td><div>127.0.0.1</div></td></tr><tr><td style="font-weight:bold;vertical-align:top;">REMOTE_PORT</td><td style="vertical-align:top;">:</td><td><div>50438</div></td></tr><tr><td style="font-weight:bold;vertical-align:top;">REQUEST_METHOD</td><td style="vertical-align:top;">:</td><td><div>GET</div></td></tr><tr><td style="font-weight:bold;vertical-align:top;">SCRIPT_NAME</td><td style="vertical-align:top;">:</td><td><div></div></td></tr><tr><td style="font-weight:bold;vertical-align:top;">SERVER_NAME</td><td style="vertical-align:top;">:</td><td><div>camilo-GX70-3CC</div></td></tr><tr><td style="font-weight:bold;vertical-align:top;">SERVER_PORT</td><td style="vertical-align:top;">:</td><td><div>3000</div></td></tr><tr><td style="font-weight:bold;vertical-align:top;">SERVER_PROTOCOL</td><td style="vertical-align:top;">:</td><td><div>HTTP/1.1</div></td></tr><tr><td style="font-weight:bold;vertical-align:top;">SERVER_SOFTWARE</td><td style="vertical-align:top;">:</td><td><div>Rocket 1.2.6</div></td></tr><tr><td style="font-weight:bold;vertical-align:top;">http_accept</td><td style="vertical-align:top;">:</td><td><div>text/html,application/xhtml+xml,application/xml;q=0.9,*/*;q=0.8</div></td></tr><tr><td style="font-weight:bold;vertical-align:top;">http_accept_encoding</td><td style="vertical-align:top;">:</td><td><div>gzip, deflate</div></td></tr><tr><td style="font-weight:bold;vertical-align:top;">http_accept_language</td><td style="vertical-align:top;">:</td><td><div>es-CL,es;q=0.8,en-US;q=0.5,en;q=0.3</div></td></tr><tr><td style="font-weight:bold;vertical-align:top;">http_connection</td><td style="vertical-align:top;">:</td><td><div>keep-alive</div></td></tr><tr><td style="font-weight:bold;vertical-align:top;">http_cookie</td><td style="vertical-align:top;">:</td><td><div>session_id_datos=127.0.0.1-f2948e7f-9814-46d8-a44d-669d1e8e37dd; session_id_admin=127.0.0.1-a1b6601d-ff1a-4a84-9a81-787d5ae26f37</div></td></tr><tr><td style="font-weight:bold;vertical-align:top;">http_host</td><td style="vertical-align:top;">:</td><td><div>127.0.0.1:3000</div></td></tr><tr><td style="font-weight:bold;vertical-align:top;">http_user_agent</td><td style="vertical-align:top;">:</td><td><div>Mozilla/5.0 (X11; Ubuntu; Linux x86_64; rv:44.0) Gecko/20100101 Firefox/44.0</div></td></tr><tr><td style="font-weight:bold;vertical-align:top;">path_info</td><td style="vertical-align:top;">:</td><td><div>/datos/tasks/resumen/2_144</div></td></tr><tr><td style="font-weight:bold;vertical-align:top;">query_string</td><td style="vertical-align:top;">:</td><td><div></div></td></tr><tr><td style="font-weight:bold;vertical-align:top;">remote_addr</td><td style="vertical-align:top;">:</td><td><div>127.0.0.1</div></td></tr><tr><td style="font-weight:bold;vertical-align:top;">remote_port</td><td style="vertical-align:top;">:</td><td><div>50438</div></td></tr><tr><td style="font-weight:bold;vertical-align:top;">request_method</td><td style="vertical-align:top;">:</td><td><div>GET</div></td></tr><tr><td style="font-weight:bold;vertical-align:top;">request_uri</td><td style="vertical-align:top;">:</td><td><div>/datos/tasks/resumen/2_144</div></td></tr><tr><td style="font-weight:bold;vertical-align:top;">script_name</td><td style="vertical-align:top;">:</td><td><div></div></td></tr><tr><td style="font-weight:bold;vertical-align:top;">server_name</td><td style="vertical-align:top;">:</td><td><div>camilo-GX70-3CC</div></td></tr><tr><td style="font-weight:bold;vertical-align:top;">server_port</td><td style="vertical-align:top;">:</td><td><div>3000</div></td></tr><tr><td style="font-weight:bold;vertical-align:top;">server_protocol</td><td style="vertical-align:top;">:</td><td><div>HTTP/1.1</div></td></tr><tr><td style="font-weight:bold;vertical-align:top;">server_software</td><td style="vertical-align:top;">:</td><td><div>Rocket 1.2.6</div></td></tr><tr><td style="font-weight:bold;vertical-align:top;">web2py_path</td><td style="vertical-align:top;">:</td><td><div>/home/camilo/Escritorio/repo_git/proyecto_mv</div></td></tr><tr><td style="font-weight:bold;vertical-align:top;">web2py_version</td><td style="vertical-align:top;">:</td><td><div>2.13.4-stable+timestamp.2016.02.10.15.41.11</div></td></tr><tr><td style="font-weight:bold;vertical-align:top;">wsgi.errors</td><td style="vertical-align:top;">:</td><td><div>&lt;open file &#x27;&lt;stderr&gt;&#x27;, mode &#x27;w&#x27; at 0x7f885b55b1e0&gt;</div></td></tr><tr><td style="font-weight:bold;vertical-align:top;">wsgi.file_wrapper</td><td style="vertical-align:top;">:</td><td><div>&lt;class wsgiref.util.FileWrapper at 0x7f885665bc18&gt;</div></td></tr><tr><td style="font-weight:bold;vertical-align:top;">wsgi.input</td><td style="vertical-align:top;">:</td><td><div>&lt;socket._fileobject object at 0x7f8820840dd0&gt;</div></td></tr><tr><td style="font-weight:bold;vertical-align:top;">wsgi.multiprocess</td><td style="vertical-align:top;">:</td><td><div>False</div></td></tr><tr><td style="font-weight:bold;vertical-align:top;">wsgi.multithread</td><td style="vertical-align:top;">:</td><td><div>True</div></td></tr><tr><td style="font-weight:bold;vertical-align:top;">wsgi.run_once</td><td style="vertical-align:top;">:</td><td><div>False</div></td></tr><tr><td style="font-weight:bold;vertical-align:top;">wsgi.url_scheme</td><td style="vertical-align:top;">:</td><td><div>http</div></td></tr><tr><td style="font-weight:bold;vertical-align:top;">wsgi.version</td><td style="vertical-align:top;">:</td><td><div><table><tr><td><div>1</div></td></tr><tr><td><div>0</div></td></tr></table></div></td></tr><tr><td style="font-weight:bold;vertical-align:top;">wsgi_errors</td><td style="vertical-align:top;">:</td><td><div>&lt;open file &#x27;&lt;stderr&gt;&#x27;, mode &#x27;w&#x27; at 0x7f885b55b1e0&gt;</div></td></tr><tr><td style="font-weight:bold;vertical-align:top;">wsgi_file_wrapper</td><td style="vertical-align:top;">:</td><td><div>&lt;class wsgiref.util.FileWrapper at 0x7f885665bc18&gt;</div></td></tr><tr><td style="font-weight:bold;vertical-align:top;">wsgi_input</td><td style="vertical-align:top;">:</td><td><div>&lt;socket._fileobject object at 0x7f8820840dd0&gt;</div></td></tr><tr><td style="font-weight:bold;vertical-align:top;">wsgi_multiprocess</td><td style="vertical-align:top;">:</td><td><div>False</div></td></tr><tr><td style="font-weight:bold;vertical-align:top;">wsgi_multithread</td><td style="vertical-align:top;">:</td><td><div>True</div></td></tr><tr><td style="font-weight:bold;vertical-align:top;">wsgi_run_once</td><td style="vertical-align:top;">:</td><td><div>False</div></td></tr><tr><td style="font-weight:bold;vertical-align:top;">wsgi_url_scheme</td><td style="vertical-align:top;">:</td><td><div>http</div></td></tr><tr><td style="font-weight:bold;vertical-align:top;">wsgi_version</td><td style="vertical-align:top;">:</td><td><div><table><tr><td><div>1</div></td></tr><tr><td><div>0</div></td></tr></table></div></td></tr></table></div></td></tr><tr><td style="font-weight:bold;vertical-align:top;">extension</td><td style="vertical-align:top;">:</td><td><div>html</div></td></tr><tr><td style="font-weight:bold;vertical-align:top;">folder</td><td style="vertical-align:top;">:</td><td><div>/home/camilo/Escritorio/repo_git/proyecto_mv/applications/datos/</div></td></tr><tr><td style="font-weight:bold;vertical-align:top;">function</td><td style="vertical-align:top;">:</td><td><div>resumen</div></td></tr><tr><td style="font-weight:bold;vertical-align:top;">is_https</td><td style="vertical-align:top;">:</td><td><div>False</div></td></tr><tr><td style="font-weight:bold;vertical-align:top;">is_local</td><td style="vertical-align:top;">:</td><td><div>True</div></td></tr><tr><td style="font-weight:bold;vertical-align:top;">is_restful</td><td style="vertical-align:top;">:</td><td><div>False</div></td></tr><tr><td style="font-weight:bold;vertical-align:top;">is_scheduler</td><td style="vertical-align:top;">:</td><td><div>False</div></td></tr><tr><td style="font-weight:bold;vertical-align:top;">is_shell</td><td style="vertical-align:top;">:</td><td><div>False</div></td></tr><tr><td style="font-weight:bold;vertical-align:top;">now</td><td style="vertical-align:top;">:</td><td><div>datetime.datetime(2016, 6, 29, 21, 5, 27, 347344)</div></td></tr><tr><td style="font-weight:bold;vertical-align:top;">raw_args</td><td style="vertical-align:top;">:</td><td><div>2_144</div></td></tr><tr><td style="font-weight:bold;vertical-align:top;">raw_extension</td><td style="vertical-align:top;">:</td><td><div>None</div></td></tr><tr><td style="font-weight:bold;vertical-align:top;">url</td><td style="vertical-align:top;">:</td><td><div>/datos/tasks/resumen/2_144</div></td></tr><tr><td style="font-weight:bold;vertical-align:top;">utcnow</td><td style="vertical-align:top;">:</td><td><div>datetime.datetime(2016, 6, 30, 2, 5, 27, 347371)</div></td></tr><tr><td style="font-weight:bold;vertical-align:top;">wsgi</td><td style="vertical-align:top;">:</td><td><div>&lt;gluon.main.LazyWSGI object at 0x7f8820712c50&gt;</div></td></tr></table></div>'
tRp58
sS'frames'
p59
(lp60
(dp61
S'file'
p62
S'/home/camilo/Escritorio/repo_git/proyecto_mv/gluon/restricted.py'
p63
sS'dump'
p64
(dp65
S'environment'
p66
S"{'A': <class 'gluon.html.A'>, 'ANY_OF': <class 'gluon.validators.ANY_OF'>, 'ASSIGNJS': <function ASSIGNJS>, 'AppConfig': <function AppConfig>, 'Auth': <class 'gluon.tools.Auth'>, 'B': <class 'gluon.html.B'>, 'BEAUTIFY': <class 'gluon.html.BEAUTIFY'>, 'BODY': <class 'gluon.html.BODY'>, 'BR': <class 'gluon.html.BR'>, 'BUTTON': <class 'gluon.html.BUTTON'>, ...}"
p67
sS'ccode'
p68
S'<code object <module> at 0x7f8854253d30, file "/...ications/datos/views/tasks/resumen.html", line 1>'
p69
ssS'lnum'
p70
I227
sS'lines'
p71
(dp72
I224
S'            ccode = code'
p73
sI225
S'        else:'
p74
sI226
S'            ccode = compile2(code, layer)'
p75
sI227
S'        exec ccode in environment'
p76
sI228
S'    except HTTP:'
p77
sI229
S'        raise'
p78
sI230
S'    except RestrictedError:'
p79
sI231
S'        # do not encapsulate (obfuscate) the original RestrictedError'
p80
sI222
S'    try:'
p81
sI223
S'        if isinstance(code, types.CodeType):'
p82
ssS'call'
p83
S'(code=\'response.write(\\\'<!DOCTYPE html>\\\\n<!--[if (gt IE ..."></script>\\\\n  </body>\\\\n</html>\\\\n\\\', escape=False)\', environment={\'A\': <class \'gluon.html.A\'>, \'ANY_OF\': <class \'gluon.validators.ANY_OF\'>, \'ASSIGNJS\': <function ASSIGNJS>, \'AppConfig\': <function AppConfig>, \'Auth\': <class \'gluon.tools.Auth\'>, \'B\': <class \'gluon.html.B\'>, \'BEAUTIFY\': <class \'gluon.html.BEAUTIFY\'>, \'BODY\': <class \'gluon.html.BODY\'>, \'BR\': <class \'gluon.html.BR\'>, \'BUTTON\': <class \'gluon.html.BUTTON\'>, ...}, layer=\'/home/camilo/Escritorio/repo_git/proyecto_mv/applications/datos/views/tasks/resumen.html\')'
p84
sS'func'
p85
S'restricted'
p86
sa(dp87
g62
S'/home/camilo/Escritorio/repo_git/proyecto_mv/applications/datos/views/tasks/resumen.html'
p88
sg64
(dp89
S'div'
p90
S'undefined'
p91
ssg70
I111
sg71
(dp92
I102
S"    response.write('</td>\\n            </tr>\\n    ', escape=False)"
p93
sI103
S'    pass'
p94
sI104
S"response.write('\\n    </table> <! Fin del resumen por maquina -->\\n    \\n    \\n    <br>\\n    <h3>\\n        ', escape=False)"
p95
sI105
S'response.write(texto_vars)'
p96
sI106
S'response.write(\'\\n    </h3>\\n    \\n    <table class="table table-hover">\\n        <thead>\\n          <tr>\\n            <th>Variable</th>\\n            <th>Valor</th>\\n          </tr>\\n        </thead>\\n        \', escape=False)'
p97
sI107
S'if variables != dict():'
p98
sI108
S"    response.write('\\n        <tbody>\\n            ', escape=False)"
p99
sI109
S'    for campo in variables:'
p100
sI110
S"        response.write('\\n            <tr>\\n                <td>', escape=False)"
p101
sI111
S'        response.write(diccionario[campo])'
p102
sI112
S"        response.write('</td>\\n                <th>', escape=False)"
p103
sI113
S'        response.write(variables[campo])'
p104
sI114
S"        response.write('</th>\\n          </tr>\\n          ', escape=False)"
p105
sI115
S'        pass'
p106
sI116
S"    response.write('\\n        </tbody>\\n        ', escape=False)"
p107
sI117
S'else:'
p108
sI118
S"    response.write('\\n            <tr>\\n                <td>', escape=False)"
p109
sI119
S'    response.write(T("There were no variables set for this job"))'
p110
sI120
S"    response.write('</td>\\n            </tr>\\n    ', escape=False)"
p111
sI121
S'    pass'
p112
ssg83
S'()'
p113
sg85
S'<module>'
p114
sasS'pyver'
p115
S'Python 2.7.9: /usr/bin/python (prefix: /usr)'
p116
sS'session'
p117
g57
(S's\xc9\t\x00\x00<div><table><tr><td style="font-weight:bold;vertical-align:top;">ACTIONS</td><td style="vertical-align:top;">:</td><td><div><table><tr><td><div>Reiniciar</div></td></tr><tr><td><div>Agregar usuario</div></td></tr></table></div></td></tr><tr><td style="font-weight:bold;vertical-align:top;">auth</td><td style="vertical-align:top;">:</td><td><div><table><tr><td style="font-weight:bold;vertical-align:top;">expiration</td><td style="vertical-align:top;">:</td><td><div>3600</div></td></tr><tr><td style="font-weight:bold;vertical-align:top;">hmac_key</td><td style="vertical-align:top;">:</td><td><div>f5b787cf-9c2a-4e46-aa14-3ec9e8c02305</div></td></tr><tr><td style="font-weight:bold;vertical-align:top;">last_visit</td><td style="vertical-align:top;">:</td><td><div>datetime.datetime(2016, 6, 29, 21, 5, 27, 347344)</div></td></tr><tr><td style="font-weight:bold;vertical-align:top;">remember_me</td><td style="vertical-align:top;">:</td><td><div>False</div></td></tr><tr><td style="font-weight:bold;vertical-align:top;">user</td><td style="vertical-align:top;">:</td><td><div><table><tr><td style="font-weight:bold;vertical-align:top;">email</td><td style="vertical-align:top;">:</td><td><div>profe@correo.com</div></td></tr><tr><td style="font-weight:bold;vertical-align:top;">first_name</td><td style="vertical-align:top;">:</td><td><div>profe1</div></td></tr><tr><td style="font-weight:bold;vertical-align:top;">id</td><td style="vertical-align:top;">:</td><td><div>2L</div></td></tr><tr><td style="font-weight:bold;vertical-align:top;">last_name</td><td style="vertical-align:top;">:</td><td><div>test1</div></td></tr><tr><td style="font-weight:bold;vertical-align:top;">registration_id</td><td style="vertical-align:top;">:</td><td><div></div></td></tr><tr><td style="font-weight:bold;vertical-align:top;">registration_key</td><td style="vertical-align:top;">:</td><td><div></div></td></tr><tr><td style="font-weight:bold;vertical-align:top;">reset_password_key</td><td style="vertical-align:top;">:</td><td><div></div></td></tr></table></div></td></tr><tr><td style="font-weight:bold;vertical-align:top;">user_groups</td><td style="vertical-align:top;">:</td><td><div><table><tr><td style="font-weight:bold;vertical-align:top;">2</td><td style="vertical-align:top;">:</td><td><div>Docente</div></td></tr></table></div></td></tr></table></div></td></tr><tr><td style="font-weight:bold;vertical-align:top;">flash</td><td style="vertical-align:top;">:</td><td><div>None</div></td></tr></table></div>'
tRp118
sS'etype'
p119
S"<type 'exceptions.KeyError'>"
p120
sS'date'
p121
S'Wed Jun 29 21:05:27 2016'
p122
sS'response'
p123
g57
(S's\xbb\'\x00\x00<div><table><tr><td style="font-weight:bold;vertical-align:top;">body</td><td style="vertical-align:top;">:</td><td><div>&lt;cStringIO.StringO object at 0x7f88565ec9d0&gt;</div></td></tr><tr><td style="font-weight:bold;vertical-align:top;">cookies</td><td style="vertical-align:top;">:</td><td><div><table><tr><td style="font-weight:bold;vertical-align:top;">session_id_datos</td><td style="vertical-align:top;">:</td><td><div>127.0.0.1-f2948e7f-9814-46d8-a44d-669d1e8e37dd<table><tr><td style="font-weight:bold;vertical-align:top;">comment</td><td style="vertical-align:top;">:</td><td><div></div></td></tr><tr><td style="font-weight:bold;vertical-align:top;">domain</td><td style="vertical-align:top;">:</td><td><div></div></td></tr><tr><td style="font-weight:bold;vertical-align:top;">expires</td><td style="vertical-align:top;">:</td><td><div></div></td></tr><tr><td style="font-weight:bold;vertical-align:top;">httponly</td><td style="vertical-align:top;">:</td><td><div></div></td></tr><tr><td style="font-weight:bold;vertical-align:top;">max-age</td><td style="vertical-align:top;">:</td><td><div></div></td></tr><tr><td style="font-weight:bold;vertical-align:top;">path</td><td style="vertical-align:top;">:</td><td><div>/</div></td></tr><tr><td style="font-weight:bold;vertical-align:top;">secure</td><td style="vertical-align:top;">:</td><td><div></div></td></tr><tr><td style="font-weight:bold;vertical-align:top;">version</td><td style="vertical-align:top;">:</td><td><div></div></td></tr></table></div></td></tr></table></div></td></tr><tr><td style="font-weight:bold;vertical-align:top;">delimiters</td><td style="vertical-align:top;">:</td><td><div><table><tr><td><div>{{</div></td></tr><tr><td><div>}}</div></td></tr></table></div></td></tr><tr><td style="font-weight:bold;vertical-align:top;">files</td><td style="vertical-align:top;">:</td><td><div><table><tr><td><div>/datos/static/js/jquery.js</div></td></tr><tr><td><div>/datos/static/css/calendar.css</div></td></tr><tr><td><div>/datos/static/js/calendar.js</div></td></tr><tr><td><div>/datos/static/js/web2py.js</div></td></tr></table></div></td></tr><tr><td style="font-weight:bold;vertical-align:top;">flash</td><td style="vertical-align:top;">:</td><td><div></div></td></tr><tr><td style="font-weight:bold;vertical-align:top;">form_label_separator</td><td style="vertical-align:top;">:</td><td><div></div></td></tr><tr><td style="font-weight:bold;vertical-align:top;">formstyle</td><td style="vertical-align:top;">:</td><td><div>bootstrap3_inline</div></td></tr><tr><td style="font-weight:bold;vertical-align:top;">generic_patterns</td><td style="vertical-align:top;">:</td><td><div><table><tr><td><div>*</div></td></tr></table></div></td></tr><tr><td style="font-weight:bold;vertical-align:top;">google_analytics_id</td><td style="vertical-align:top;">:</td><td><div>None</div></td></tr><tr><td style="font-weight:bold;vertical-align:top;">headers</td><td style="vertical-align:top;">:</td><td><div><table><tr><td style="font-weight:bold;vertical-align:top;">X-Powered-By</td><td style="vertical-align:top;">:</td><td><div>web2py</div></td></tr></table></div></td></tr><tr><td style="font-weight:bold;vertical-align:top;">logo</td><td style="vertical-align:top;">:</td><td><div><a class="navbar-brand" href="/datos/default/index" id="pmv_logo"><b>VM-UD</b>&trade;&nbsp;</a></div></td></tr><tr><td style="font-weight:bold;vertical-align:top;">menu</td><td style="vertical-align:top;">:</td><td><div><table><tr><td><div><table><tr><td><div>Inicio</div></td></tr><tr><td><div>False</div></td></tr><tr><td><div>/datos/default/index</div></td></tr><tr><td><div><table></table></div></td></tr></table></div></td></tr><tr><td><div><table><tr><td><div>Cursos</div></td></tr><tr><td><div>False</div></td></tr><tr><td><div>#</div></td></tr><tr><td><div><table><tr><td><div><table><tr><td><div>Objetos 1</div></td></tr><tr><td><div>False</div></td></tr><tr><td><div>/datos/default/show_couxuser/2</div></td></tr></table></div></td></tr></table></div></td></tr></table></div></td></tr><tr><td><div><table><tr><td><div>Equipos</div></td></tr><tr><td><div>False</div></td></tr><tr><td><div>#</div></td></tr><tr><td><div><table><tr><td><div><table><tr><td><div>192.168.0.105</div></td></tr><tr><td><div>False</div></td></tr><tr><td><div>/datos/default/mostrar_macxuser/11/2</div></td></tr></table></div></td></tr><tr><td><div><table><tr><td><div>192.168.0.106</div></td></tr><tr><td><div>False</div></td></tr><tr><td><div>/datos/default/mostrar_macxuser/14/2</div></td></tr></table></div></td></tr></table></div></td></tr></table></div></td></tr><tr><td><div><table><tr><td><div>Comandos</div></td></tr><tr><td><div>False</div></td></tr><tr><td><div>#</div></td></tr><tr><td><div><table><tr><td><div><table><tr><td><div>Usuarios</div></td></tr><tr><td><div>False</div></td></tr><tr><td><div>/datos/commands/users</div></td></tr></table></div></td></tr><tr><td><div><table><tr><td><div>Sistema</div></td></tr><tr><td><div>False</div></td></tr><tr><td><div>/datos/commands/system</div></td></tr></table></div></td></tr><tr><td><div><table><tr><td><div>Archivos</div></td></tr><tr><td><div>False</div></td></tr><tr><td><div>/datos/commands/files</div></td></tr></table></div></td></tr></table></div></td></tr></table></div></td></tr><tr><td><div><table><tr><td><div>Consultar</div></td></tr><tr><td><div>False</div></td></tr><tr><td><div>#</div></td></tr><tr><td><div><table><tr><td><div><table><tr><td><div>Archivos</div></td></tr><tr><td><div>False</div></td></tr><tr><td><div>/datos/default/list_files</div></td></tr></table></div></td></tr><tr><td><div><table><tr><td><div>Mis tareas</div></td></tr><tr><td><div>False</div></td></tr><tr><td><div>/datos/tasks/index</div></td></tr></table></div></td></tr><tr><td><div><table><tr><td><div>Servicios</div></td></tr><tr><td><div>False</div></td></tr><tr><td><div>/datos/consult/machines</div></td></tr></table></div></td></tr></table></div></td></tr></table></div></td></tr></table></div></td></tr><tr><td style="font-weight:bold;vertical-align:top;">meta</td><td style="vertical-align:top;">:</td><td><div><table><tr><td style="font-weight:bold;vertical-align:top;">author</td><td style="vertical-align:top;">:</td><td><div>Carlos  &lt;suarezsilvestre1@gmail.com&gt; Camilo &lt;urrego@outlook.com&gt;</div></td></tr><tr><td style="font-weight:bold;vertical-align:top;">description</td><td style="vertical-align:top;">:</td><td><div>a cool new app</div></td></tr><tr><td style="font-weight:bold;vertical-align:top;">generator</td><td style="vertical-align:top;">:</td><td><div>Web2py Web Framework</div></td></tr><tr><td style="font-weight:bold;vertical-align:top;">keywords</td><td style="vertical-align:top;">:</td><td><div>web2py, python, framework</div></td></tr></table></div></td></tr><tr><td style="font-weight:bold;vertical-align:top;">models_to_run</td><td style="vertical-align:top;">:</td><td><div><table><tr><td><div>^\\w+\\.py$</div></td></tr><tr><td><div>^tasks/\\w+\\.py$</div></td></tr><tr><td><div>^tasks/resumen/\\w+\\.py$</div></td></tr></table></div></td></tr><tr><td style="font-weight:bold;vertical-align:top;">postprocessing</td><td style="vertical-align:top;">:</td><td><div><table></table></div></td></tr><tr><td style="font-weight:bold;vertical-align:top;">session_client</td><td style="vertical-align:top;">:</td><td><div>127.0.0.1</div></td></tr><tr><td style="font-weight:bold;vertical-align:top;">session_cookie_compression_level</td><td style="vertical-align:top;">:</td><td><div>None</div></td></tr><tr><td style="font-weight:bold;vertical-align:top;">session_cookie_expires</td><td style="vertical-align:top;">:</td><td><div>None</div></td></tr><tr><td style="font-weight:bold;vertical-align:top;">session_cookie_key</td><td style="vertical-align:top;">:</td><td><div>None</div></td></tr><tr><td style="font-weight:bold;vertical-align:top;">session_data_name</td><td style="vertical-align:top;">:</td><td><div>session_data_datos</div></td></tr><tr><td style="font-weight:bold;vertical-align:top;">session_file</td><td style="vertical-align:top;">:</td><td><div>&lt;open file &#x27;/home/camilo/Escritorio/repo_git/proyecto_mv/applications/datos/sessions/1a5/1d4/127.0.0.1-f2948e7f-9814-46d8-a44d-669d1e8e37dd&#x27;, mode &#x27;rb+&#x27; at 0x7f8821bce8a0&gt;</div></td></tr><tr><td style="font-weight:bold;vertical-align:top;">session_filename</td><td style="vertical-align:top;">:</td><td><div>/home/camilo/Escritorio/repo_git/proyecto_mv/applications/datos/sessions/127.0.0.1-f2948e7f-9814-46d8-a44d-669d1e8e37dd</div></td></tr><tr><td style="font-weight:bold;vertical-align:top;">session_hash</td><td style="vertical-align:top;">:</td><td><div>bfc9c71bfe0007b849421b8a8b33645b</div></td></tr><tr><td style="font-weight:bold;vertical-align:top;">session_id</td><td style="vertical-align:top;">:</td><td><div>127.0.0.1-f2948e7f-9814-46d8-a44d-669d1e8e37dd</div></td></tr><tr><td style="font-weight:bold;vertical-align:top;">session_id_name</td><td style="vertical-align:top;">:</td><td><div>session_id_datos</div></td></tr><tr><td style="font-weight:bold;vertical-align:top;">session_locked</td><td style="vertical-align:top;">:</td><td><div>True</div></td></tr><tr><td style="font-weight:bold;vertical-align:top;">session_masterapp</td><td style="vertical-align:top;">:</td><td><div>datos</div></td></tr><tr><td style="font-weight:bold;vertical-align:top;">session_new</td><td style="vertical-align:top;">:</td><td><div>False</div></td></tr><tr><td style="font-weight:bold;vertical-align:top;">session_storage_type</td><td style="vertical-align:top;">:</td><td><div>file</div></td></tr><tr><td style="font-weight:bold;vertical-align:top;">status</td><td style="vertical-align:top;">:</td><td><div>200</div></td></tr><tr><td style="font-weight:bold;vertical-align:top;">subtitle</td><td style="vertical-align:top;">:</td><td><div></div></td></tr><tr><td style="font-weight:bold;vertical-align:top;">title</td><td style="vertical-align:top;">:</td><td><div>Datos</div></td></tr><tr><td style="font-weight:bold;vertical-align:top;">view</td><td style="vertical-align:top;">:</td><td><div>tasks/resumen.html</div></td></tr></table></div>'
tRp124
sS'locals'
p125
(dp126
S'Service'
p127
S"<class 'gluon.tools.Service'>"
p128
sS'OBJECT'
p129
S"<class 'gluon.html.OBJECT'>"
p130
sS'SQLDB'
p131
S"<class 'pydal.base.DAL'>"
p132
sg117
S"<Storage {'_auth_next': None, 'flash': None, '_f...gin]': ['d8e7316c-8d2d-4ce1-b472-0c9c5e4dda1f']}>"
p133
sS'LINK'
p134
S"<class 'gluon.html.LINK'>"
p135
sS'playbook'
p136
S'<function playbook>'
p137
sS'BR'
p138
S"<class 'gluon.html.BR'>"
p139
sS'local_import'
p140
S'<function <lambda>>'
p141
sS'OPTGROUP'
p142
S"<class 'gluon.html.OPTGROUP'>"
p143
sS'__package__'
p144
S'None'
p145
sS'PROCESSOR'
p146
S"['1', '2', '3', '4', '5', '6', '7', '8', '9', '10', <lazyT 'Other'>]"
p147
sS'row'
p148
S"<Row {'group_id': 2L, 'user_id': 2L, 'id': 3L}>"
p149
sS'PRE'
p150
S"<class 'gluon.html.PRE'>"
p151
sS'IS_INT_IN_RANGE'
p152
S"<class 'gluon.validators.IS_INT_IN_RANGE'>"
p153
sS'buscar_tarea_debug'
p154
S'<function buscar_tarea_debug>'
p155
sS'IS_LOWER'
p156
S"<class 'gluon.validators.IS_LOWER'>"
p157
sS'IS_STRONG'
p158
S"<class 'gluon.validators.IS_STRONG'>"
p159
sS'cache'
p160
S'<gluon.cache.Cache object>'
p161
sS'IS_IN_DB'
p162
S"<class 'gluon.validators.IS_IN_DB'>"
p163
sS'RAM_MEMORY'
p164
S"['512MB', '1024MB', '2048MB', '3072MB', '4096MB', '5120MB', '6144MB', '7168MB', '8192MB', '9216MB', '10240MB', <lazyT 'Other MB'>]"
p165
sS'yaml'
p166
S"<module 'yaml' from '/usr/lib/python2.7/dist-packages/yaml/__init__.pyc'>"
p167
sS'TAG'
p168
S'<gluon.html.__TAG__ object>'
p169
sS'Scheduler'
p170
S"<class 'gluon.scheduler.Scheduler'>"
p171
sS'SQLField'
p172
S"<class 'pydal.objects.Field'>"
p173
sS'mail'
p174
S'<gluon.tools.Mail object>'
p175
sS'job_name'
p176
S"'2_144'"
p177
sS'BODY'
p178
S"<class 'gluon.html.BODY'>"
p179
sS'IS_DATE_IN_RANGE'
p180
S"<class 'gluon.validators.IS_DATE_IN_RANGE'>"
p181
sS'IFRAME'
p182
S"<class 'gluon.html.IFRAME'>"
p183
sS'URL'
p184
S'<function URL>'
p185
sS'__file__'
p186
S"'/home/camilo/Escritorio/repo_git/proyecto_mv/applications/datos/views/tasks/resumen.html'"
p187
sS'auth'
p188
S'<gluon.tools.Auth object>'
p189
sS'P'
S"<class 'gluon.html.P'>"
p190
sS'grid'
p191
S'<gluon.html.DIV object>'
p192
sS'TFOOT'
p193
S"<class 'gluon.html.TFOOT'>"
p194
sS'scheduler'
p195
S'<Scheduler(Thread-482, initial daemon)>'
p196
sS'db1'
p197
S'<DAL uri="postgres:******@localhost/proyecto2">'
p198
sS'XHTML'
p199
S"<class 'gluon.html.XHTML'>"
p200
sS'subprocess'
p201
S"<module 'subprocess' from '/usr/lib/python2.7/subprocess.pyc'>"
p202
sS'existe_resumen'
p203
S"<lazyT 'Yes'>"
p204
sS'ON'
p205
S'True'
p206
sS'macxuser'
p207
S"[('192.168.0.105', False, '/datos/default/mostrar_macxuser/11/2'), ('192.168.0.106', False, '/datos/default/mostrar_macxuser/14/2')]"
p208
sS'OL'
p209
S"<class 'gluon.html.OL'>"
p210
sS'accion'
p211
S"'services'"
p212
sS'TEXTAREA'
p213
S"<class 'gluon.html.TEXTAREA'>"
p214
sS'MENU'
p215
S"<class 'gluon.html.MENU'>"
p216
sS'HOSTNAME'
p217
S'[]'
p218
sS'courses'
p219
S'<Set (course_group.cod_course IS NULL)>'
p220
sS'debug'
p221
g45
sS'diccionario'
p222
S"{'accion': <lazyT 'Action'>, 'action': <lazyT 'Action'>, 'admin': <lazyT 'Aministrator'>, 'origen': <lazyT 'Source'>, 'paquetes': <lazyT 'Packages'>, 'password': <lazyT 'Password'>, 'remote': <lazyT 'Hosts'>, 'repositorios': <lazyT 'Repositories'>, 'somelist': <lazyT 'Users List'>, 'username': <lazyT 'User Name'>}"
p223
sS'EM'
p224
S"<class 'gluon.html.EM'>"
p225
sS'CODE'
p226
S"<class 'gluon.html.CODE'>"
p227
sS'GROUP'
p228
S"['51', '52', '61', '62']"
p229
sS'HR'
p230
S"<class 'gluon.html.HR'>"
p231
sS'cargar_variables'
p232
S'<function cargar_variables>'
p233
sS'IS_DATETIME'
p234
S"<class 'gluon.validators.IS_DATETIME'>"
p235
sS'STYLE'
p236
S"<class 'gluon.html.STYLE'>"
p237
sS'LABEL'
p238
S"<class 'gluon.html.LABEL'>"
p239
sS'escribir_variables_json'
p240
S'<function escribir_variables_json>'
p241
sS'CLEANUP'
p242
S"<class 'gluon.validators.CLEANUP'>"
p243
sS'plugins'
p244
S'<gluon.tools.PluginManager object>'
p245
sS'INPUT'
p246
S"<class 'gluon.html.INPUT'>"
p247
sS'texto_summary'
p248
S"<lazyT 'Global Summary'>"
p249
sS'SELECT'
p250
S"<class 'gluon.html.SELECT'>"
p251
sS'CENTER'
p252
S"<class 'gluon.html.CENTER'>"
p253
sS'Auth'
p254
S"<class 'gluon.tools.Auth'>"
p255
sS'DEVELOPMENT_MENU'
p256
S'False'
p257
sS'__builtins__'
p258
S"{'ArithmeticError': <type 'exceptions.ArithmeticError'>, 'AssertionError': <type 'exceptions.AssertionError'>, 'AttributeError': <type 'exceptions.AttributeError'>, 'BaseException': <type 'exceptions.BaseException'>, 'BufferError': <type 'exceptions.BufferError'>, 'BytesWarning': <type 'exceptions.BytesWarning'>, 'DeprecationWarning': <type 'exceptions.DeprecationWarning'>, 'EOFError': <type 'exceptions.EOFError'>, 'Ellipsis': Ellipsis, 'EnvironmentError': <type 'exceptions.EnvironmentError'>, ...}"
p259
sS'HTML'
p260
S"<class 'gluon.html.HTML'>"
p261
sS'SQLFORM'
p262
S"<class 'gluon.sqlhtml.SQLFORM'>"
p263
sS'adminis'
p264
S'<Rows (1)>'
p265
sS'LOAD'
p266
S'<function LOAD>'
p267
sS'redirect'
p268
S'<function redirect>'
p269
sS'FIELDSET'
p270
S"<class 'gluon.html.FIELDSET'>"
p271
sS'ast'
p272
S"<module 'ast' from '/usr/lib/python2.7/ast.pyc'>"
p273
sS'IS_EQUAL_TO'
p274
S"<class 'gluon.validators.IS_EQUAL_TO'>"
p275
sS'embed64'
p276
S'<function embed64>'
p277
sS'COL'
p278
S"<class 'gluon.html.COL'>"
p279
sS'IS_LIST_OF'
p280
S"<class 'gluon.validators.IS_LIST_OF'>"
p281
sS'left_sidebar_enabled'
p282
g257
sS'EMBED'
p283
S"<class 'gluon.html.EMBED'>"
p284
sS'separar_resultados'
p285
S'<function separar_resultados>'
p286
sS'_'
S'<function _>'
p287
sS'IS_IMAGE'
p288
S"<class 'gluon.validators.IS_IMAGE'>"
p289
sS'myconf'
p290
S"{'forms': {'formstyle': 'bootstrap3_inline', 'se...tre1@gmail.com', 'server': 'smtp.gmail.com:587'}}"
p291
sS'H2'
p292
S"<class 'gluon.html.H2'>"
p293
sS'H3'
p294
S"<class 'gluon.html.H3'>"
p295
sS'AppConfig'
p296
S'<function AppConfig>'
p297
sS'H1'
p298
S"<class 'gluon.html.H1'>"
p299
sS'H6'
p300
S"<class 'gluon.html.H6'>"
p301
sS'H4'
p302
S"<class 'gluon.html.H4'>"
p303
sS'H5'
p304
S"<class 'gluon.html.H5'>"
p305
sS'UL'
p306
S"<class 'gluon.html.UL'>"
p307
sS'IS_UPPER'
p308
S"<class 'gluon.validators.IS_UPPER'>"
p309
sS'guardar_debug'
p310
S'<function guardar_debug>'
p311
sS'resultados'
p312
S"[['192.168.0.105              ', {'changed': '0', 'failed': '0', 'ok': '1', 'unreachable': '0'}], ['192.168.0.106              ', {'changed': '0', 'failed': '0', 'ok': '1', 'unreachable': '0'}]]"
p313
sS'fila_accion'
p314
S'<Rows (1)>'
p315
sS'IS_TIME'
p316
S"<class 'gluon.validators.IS_TIME'>"
p317
sS'os'
p318
S"<module 'os' from '/usr/lib/python2.7/os.pyc'>"
p319
sS'OPTION'
p320
S"<class 'gluon.html.OPTION'>"
p321
sS'TITLE'
p322
S"<class 'gluon.html.TITLE'>"
p323
sS'CRYPT'
p324
S"<class 'gluon.validators.CRYPT'>"
p325
sS'variables'
p326
S"{'action': 'start', 'remote': 'all', 'services': ['apache2']}"
p327
sS'IS_EMPTY_OR'
p328
S"<class 'gluon.validators.IS_EMPTY_OR'>"
p329
sS'MARKMIN'
p330
S"<class 'gluon.html.MARKMIN'>"
p331
sS'__name__'
p332
S"'__restricted__'"
p333
sS'HTTP'
p334
S"<class 'gluon.http.HTTP'>"
p335
sS'boton_descargar'
p336
S'<gluon.html.INPUT object>'
p337
sS'STRONG'
p338
S"<class 'gluon.html.STRONG'>"
p339
sS'query_task'
p340
S'<Query (scheduler_task.id = 264)>'
p341
sS'mc1'
p342
S"'col-md-9'"
p343
sS'mc0'
p344
S"'col-md-12'"
p345
sS'user_id'
p346
S'2'
sS'service'
p347
S'<gluon.tools.Service object>'
p348
sS'SCRIPT'
p349
S"<class 'gluon.html.SCRIPT'>"
p350
sS'leer_debug_puertos'
p351
S'<function leer_debug_puertos>'
p352
sS'json'
p353
S"<module 'json' from '/usr/lib/python2.7/json/__init__.pyc'>"
p354
sS'escribir_variables_yml'
p355
S'<function escribir_variables_yml>'
p356
sS'TABLE'
p357
S"<class 'gluon.html.TABLE'>"
p358
sS'buscar_tarea_resumen'
p359
S'<function buscar_tarea_resumen>'
p360
sS'texto_summary_per_host'
p361
S"<lazyT 'Summary per host'>"
p362
sS'IS_IPV4'
p363
S"<class 'gluon.validators.IS_IPV4'>"
p364
sS'IS_LENGTH'
p365
S"<class 'gluon.validators.IS_LENGTH'>"
p366
sS'IS_IPV6'
p367
S"<class 'gluon.validators.IS_IPV6'>"
p368
sS'XML'
p369
S"<class 'gluon.html.XML'>"
p370
sS'existe_debug'
p371
S"<lazyT 'No'>"
p372
sS'B'
S"<class 'gluon.html.B'>"
p373
sS'couxuser'
p374
S"[(<lazyT 'Objetos 1'>, False, '/datos/default/show_couxuser/2')]"
p375
sS'IMG'
p376
S"<class 'gluon.html.IMG'>"
p377
sS'SQLTABLE'
p378
S"<class 'gluon.sqlhtml.SQLTABLE'>"
p379
sS'IS_MATCH'
p380
S"<class 'gluon.validators.IS_MATCH'>"
p381
sS'STR_DAL'
p382
S"'postgres://postgres:1234@localhost/proyecto2'"
p383
sS'IS_ALPHANUMERIC'
p384
S"<class 'gluon.validators.IS_ALPHANUMERIC'>"
p385
sS'leer_debug_servicios'
p386
S'<function leer_debug_servicios>'
p387
sS'SPAN'
p388
S"<class 'gluon.html.SPAN'>"
p389
sS'IS_JSON'
p390
S"<class 'gluon.validators.IS_JSON'>"
p391
sS'IS_IPADDRESS'
p392
S"<class 'gluon.validators.IS_IPADDRESS'>"
p393
sS'crear_inventario'
p394
S'<function crear_inventario>'
p395
sS'P_HOST'
p396
S"['5901', '5902', '5903', '5904', '5905', '5906', '5907', '5908', '5909', '5910', '5911', '5912', '5913', '5914', '5915', '5916']"
p397
sS'IS_SLUG'
p398
S"<class 'gluon.validators.IS_SLUG'>"
p399
sS'OPERA_SYSTEM'
p400
S"['Fedora', 'CentOs', 'Ubuntu', 'Kali', 'Windows', <lazyT 'Other'>]"
p401
sS'BEAUTIFY'
p402
S"<class 'gluon.html.BEAUTIFY'>"
p403
sS'META'
p404
S"<class 'gluon.html.META'>"
p405
sS'trabajo'
p406
S'<Rows (1)>'
p407
sS'BUTTON'
p408
S"<class 'gluon.html.BUTTON'>"
p409
sS'c_group'
p410
S"<Row {'cod_course': 2L}>"
p411
sS'IS_DATE'
p412
S"<class 'gluon.validators.IS_DATE'>"
p413
sS'IS_EMAIL'
p414
S"<class 'gluon.validators.IS_EMAIL'>"
p415
sS'middle_column'
p416
S"'col-md-12'"
p417
sS'IS_NOT_EMPTY'
p418
S"<class 'gluon.validators.IS_NOT_EMPTY'>"
p419
sS'IS_FLOAT_IN_RANGE'
p420
S"<class 'gluon.validators.IS_FLOAT_IN_RANGE'>"
p421
sS'TBODY'
p422
S"<class 'gluon.html.TBODY'>"
p423
sS'CAT'
p424
S"<class 'gluon.html.CAT'>"
p425
sS'Field'
p426
S"<class 'pydal.objects.Field'>"
p427
sS'mc2'
p428
S"'col-md-6'"
p429
sS'IS_LIST_OF_EMAILS'
p430
S"<class 'gluon.validators.IS_LIST_OF_EMAILS'>"
p431
sS'datos'
p432
g45
sS'DIV'
p433
S"<class 'gluon.html.DIV'>"
p434
sS'job_user_id'
p435
S'2'
sS'LEGEND'
p436
S"<class 'gluon.html.LEGEND'>"
p437
sS'guardar_resumen'
p438
S'<function guardar_resumen>'
p439
sS'COLGROUP'
p440
S"<class 'gluon.html.COLGROUP'>"
p441
sS'DAL'
p442
S"<class 'pydal.base.DAL'>"
p443
sS'ASSIGNJS'
p444
S'<function ASSIGNJS>'
p445
sS'TR'
p446
S"<class 'gluon.html.TR'>"
p447
sS'mig'
p448
g206
sS'LI'
p449
S"<class 'gluon.html.LI'>"
p450
sS'right_sidebar_enabled'
p451
g257
sS'TH'
p452
S"<class 'gluon.html.TH'>"
p453
sS'TD'
p454
S"<class 'gluon.html.TD'>"
p455
sS'PluginManager'
p456
S"<class 'gluon.tools.PluginManager'>"
p457
sS'IS_URL'
p458
S"<class 'gluon.validators.IS_URL'>"
p459
sS'boton_volver'
p460
S'<gluon.html.INPUT object>'
p461
sS'A'
S"<class 'gluon.html.A'>"
p462
sS'HEAD'
p463
S"<class 'gluon.html.HEAD'>"
p464
sS'IS_DATETIME_IN_RANGE'
p465
S"<class 'gluon.validators.IS_DATETIME_IN_RANGE'>"
p466
sS'abrir_resumen'
p467
S'<function abrir_resumen>'
p468
sS'FORM'
p469
S"<class 'gluon.html.FORM'>"
p470
sS'texto_vars'
p471
S"<lazyT 'Variables'>"
p472
sS'I'
S"<class 'gluon.html.I'>"
p473
sS'campos_task'
p474
S'[<pydal.objects.Field object>, <pydal.objects.Field object>, <pydal.objects.Field object>]'
p475
sS'xmlescape'
p476
S'<function xmlescape>'
p477
sS'pareja'
p478
S"['192.168.0.106              ', {'changed': '0', 'failed': '0', 'ok': '1', 'unreachable': '0'}]"
p479
sS'IS_NOT_IN_DB'
p480
S"<class 'gluon.validators.IS_NOT_IN_DB'>"
p481
sS'SEMESTER'
p482
S"['2016-I', '2016-III', '2017-I', '2017-III', '2018-I', '2018-III', '2019-I', '2019-III', '2020-I', '2020-III', '2021-I', '2021-III', '2022-I', '2022-III', '2023-I', '2023-III', '2024-I', '2024-III', '2025-I', '2025-III']"
p483
sg123
S"<Storage {'body': <cStringIO.StringO object at 0...t 0x7f8820854cf8>, 'view': 'tasks/resumen.html'}>"
p484
sS'THEAD'
p485
S"<class 'gluon.html.THEAD'>"
p486
sS'ANY_OF'
p487
S"<class 'gluon.validators.ANY_OF'>"
p488
sS'IS_NULL_OR'
p489
S"<class 'gluon.validators.IS_EMPTY_OR'>"
p490
sS'campo'
p491
S"'services'"
p492
sg56
S"<Storage {'_vars': <Storage {'records': []}>, 'f...torio/repo_git/proyecto_mv/applications/datos/'}>"
p493
sS'IS_EXPR'
p494
S"<class 'gluon.validators.IS_EXPR'>"
p495
sS'T'
S'<gluon.languages.translator object>'
p496
sS'IS_IN_SET'
p497
S"<class 'gluon.validators.IS_IN_SET'>"
p498
sS'IS_UPLOAD_FILENAME'
p499
S"<class 'gluon.validators.IS_UPLOAD_FILENAME'>"
p500
sS'IS_DECIMAL_IN_RANGE'
p501
S"<class 'gluon.validators.IS_DECIMAL_IN_RANGE'>"
p502
sS'TT'
p503
S"<class 'gluon.html.TT'>"
p504
sS're'
p505
S"<module 're' from '/usr/lib/python2.7/re.pyc'>"
p506
sS'cabezas'
p507
S'[]'
p508
sssS'traceback'
p509
S'Traceback (most recent call last):\n  File "/home/camilo/Escritorio/repo_git/proyecto_mv/gluon/restricted.py", line 227, in restricted\n    exec ccode in environment\n  File "/home/camilo/Escritorio/repo_git/proyecto_mv/applications/datos/views/tasks/resumen.html", line 111, in <module>\n    </div>\nKeyError: \'services\'\n'
p510
s.