(dp1
S'output'
p2
S"<class 'gluon.contrib.pg8000.ProgrammingError'> ('ERROR', '42601', 'error de sintaxis en o cerca de \\xc2\\xab)\\xc2\\xbb')"
p3
sS'layer'
p4
S'/home/Carlos/Descargas/web2py/applications/datos/models/menu.py'
p5
sS'code'
p6
S'# -*- coding: utf-8 -*-\n# this file is released under public domain and you can use without limitations\n\n#########################################################################\n## Customize your APP title, subtitle and menus here\n#########################################################################\n\nresponse.logo = A(B(\'VM-UD\'),XML(\'&trade;&nbsp;\'),\n                  _class="navbar-brand",_href=URL(\'default\', \'index\'),\n                  _id="pmv_logo")\n\nresponse.title = request.application.replace(\'_\',\' \').title()\nresponse.subtitle = \'\'\n\n## read more at http://dev.w3.org/html5/markup/meta.name.html\nresponse.meta.author = \'Carlos  <suarezsilvestre1@gmail.com>\'\nresponse.meta.description = \'a cool new app\'\nresponse.meta.keywords = \'web2py, python, framework\'\nresponse.meta.generator = \'Web2py Web Framework\'\n\n## your http://google.com/analytics id\nresponse.google_analytics_id = None\n\n#########################################################################\n## this is the main application menu add/remove items as required\n#########################################################################\n\nresponse.menu = [\n    (T(\'Home\'), False, URL(\'default\', \'index\'), [])]\n\n\n#List of course for userid  (Ex: User_id 1, machines 192.168.1.114,192.168.1.115)\ncouxuser = []\nfor row in db1((db1.course_group.id_teacher==auth.user_id) & ()).select(db1.course.name_course, distinct=True):\n    #couxuser.append(row.cod_course.name_course)\n    couxuser.append((T(row.cod_course.name_course), False, URL(\'default\', \'\', )))\n\n    \nmacxuser = []\nfor c_group in db1(db1.course_group.id_teacher==auth.user_id).select():\n    for row in db1(db1.machine.code_course==c_group.cod_course).select():\n        macxuser.append((T(row.ip_machine), False,URL(\'default\', \'mostrar_macxuser\',args=(row.id, c_group.cod_course)))) #/id_machine/id_course\n\n#for row in db1(db1.machine.code_course==db1.course_group.cod_course).select():\n    #macxuser.append((T(row.machine.ip_machine), False, URL(\'default\', \'\', )))\n\nadminis = db1((db1.auth_membership.user_id == auth.user_id)).select()\nfor row in adminis:\n    if row.group_id.role =="administrador": #row.group_id == 1\n        response.menu += [\n            (T(\'Aprobacion\'), False, \'#\', [\n                    (T(\'Teacher\'), False, URL(\'default\', \'agree_teacher\'))]),\n            (T(\'To register\'), False, \'#\', [\n                    (T(\'Course\'), False, URL(\'default\', \'register_course\')),\n                    (T(\'Machine\'), False, URL(\'default\', \'register_machine\'))])]\n        \n    if row.group_id.role=="docente":\n        response.menu += [\n            (T(\'Courses\'), False,\'#\',couxuser),\n            (T(\'Machines\'), False,\'#\',macxuser),\n            (T(\'Machines\'), False, URL(\'maquinas\',\'mostrar\')),\n            (T(\'My jobs\'), False, URL(\'tareas\', \'index\'))]\n    else:\n        response.menu += []\n\nDEVELOPMENT_MENU = False\n\n#########################################################################\n## provide shortcuts for development. remove in production\n#########################################################################\n\ndef _():\n    # shortcuts\n    app = request.application\n    ctr = request.controller\n    # useful links to internal and external resources\n    response.menu += [\n        (T(\'My Sites\'), False, URL(\'admin\', \'default\', \'site\')),\n          (T(\'This App\'), False, \'#\', [\n              (T(\'Design\'), False, URL(\'admin\', \'default\', \'design/%s\' % app)),\n              LI(_class="divider"),\n              (T(\'Controller\'), False,\n               URL(\n               \'admin\', \'default\', \'edit/%s/controllers/%s.py\' % (app, ctr))),\n              (T(\'View\'), False,\n               URL(\n               \'admin\', \'default\', \'edit/%s/views/%s\' % (app, response.view))),\n              (T(\'DB Model\'), False,\n               URL(\n               \'admin\', \'default\', \'edit/%s/models/db.py\' % app)),\n              (T(\'Menu Model\'), False,\n               URL(\n               \'admin\', \'default\', \'edit/%s/models/menu.py\' % app)),\n              (T(\'Config.ini\'), False,\n               URL(\n               \'admin\', \'default\', \'edit/%s/private/appconfig.ini\' % app)),\n              (T(\'Layout\'), False,\n               URL(\n               \'admin\', \'default\', \'edit/%s/views/layout.html\' % app)),\n              (T(\'Stylesheet\'), False,\n               URL(\n               \'admin\', \'default\', \'edit/%s/static/css/web2py-bootstrap3.css\' % app)),\n              (T(\'Database\'), False, URL(app, \'appadmin\', \'index\')),\n              (T(\'Errors\'), False, URL(\n               \'admin\', \'default\', \'errors/\' + app)),\n              (T(\'About\'), False, URL(\n               \'admin\', \'default\', \'about/\' + app)),\n              ]),\n          (\'web2py.com\', False, \'#\', [\n             (T(\'Download\'), False,\n              \'http://www.web2py.com/examples/default/download\'),\n             (T(\'Support\'), False,\n              \'http://www.web2py.com/examples/default/support\'),\n             (T(\'Demo\'), False, \'http://web2py.com/demo_admin\'),\n             (T(\'Quick Examples\'), False,\n              \'http://web2py.com/examples/default/examples\'),\n             (T(\'FAQ\'), False, \'http://web2py.com/AlterEgo\'),\n             (T(\'Videos\'), False,\n              \'http://www.web2py.com/examples/default/videos/\'),\n             (T(\'Free Applications\'),\n              False, \'http://web2py.com/appliances\'),\n             (T(\'Plugins\'), False, \'http://web2py.com/plugins\'),\n             (T(\'Recipes\'), False, \'http://web2pyslices.com/\'),\n             ]),\n          (T(\'Documentation\'), False, \'#\', [\n             (T(\'Online book\'), False, \'http://www.web2py.com/book\'),\n             LI(_class="divider"),\n             (T(\'Preface\'), False,\n              \'http://www.web2py.com/book/default/chapter/00\'),\n             (T(\'Introduction\'), False,\n              \'http://www.web2py.com/book/default/chapter/01\'),\n             (T(\'Python\'), False,\n              \'http://www.web2py.com/book/default/chapter/02\'),\n             (T(\'Overview\'), False,\n              \'http://www.web2py.com/book/default/chapter/03\'),\n             (T(\'The Core\'), False,\n              \'http://www.web2py.com/book/default/chapter/04\'),\n             (T(\'The Views\'), False,\n              \'http://www.web2py.com/book/default/chapter/05\'),\n             (T(\'Database\'), False,\n              \'http://www.web2py.com/book/default/chapter/06\'),\n             (T(\'Forms and Validators\'), False,\n              \'http://www.web2py.com/book/default/chapter/07\'),\n             (T(\'Email and SMS\'), False,\n              \'http://www.web2py.com/book/default/chapter/08\'),\n             (T(\'Access Control\'), False,\n              \'http://www.web2py.com/book/default/chapter/09\'),\n             (T(\'Services\'), False,\n              \'http://www.web2py.com/book/default/chapter/10\'),\n             (T(\'Ajax Recipes\'), False,\n              \'http://www.web2py.com/book/default/chapter/11\'),\n             (T(\'Components and Plugins\'), False,\n              \'http://www.web2py.com/book/default/chapter/12\'),\n             (T(\'Deployment Recipes\'), False,\n              \'http://www.web2py.com/book/default/chapter/13\'),\n             (T(\'Other Recipes\'), False,\n              \'http://www.web2py.com/book/default/chapter/14\'),\n             (T(\'Helping web2py\'), False,\n              \'http://www.web2py.com/book/default/chapter/15\'),\n             (T("Buy web2py\'s book"), False,\n              \'http://stores.lulu.com/web2py\'),\n             ]),\n          (T(\'Community\'), False, None, [\n             (T(\'Groups\'), False,\n              \'http://www.web2py.com/examples/default/usergroups\'),\n              (T(\'Twitter\'), False, \'http://twitter.com/web2py\'),\n              (T(\'Live Chat\'), False,\n               \'http://webchat.freenode.net/?channels=web2py\'),\n              ]),\n        ]\nif DEVELOPMENT_MENU: _()\n\nif "auth" in locals(): auth.wikimenu()\n'
p7
sS'snapshot'
p8
(dp9
S'exception'
p10
(dp11
S'__module__'
p12
S"'gluon.contrib.pg8000'"
p13
sS'__getslice__'
p14
S"<method-wrapper '__getslice__' of ProgrammingError object>"
p15
sS'__str__'
p16
S"<method-wrapper '__str__' of ProgrammingError object>"
p17
sS'__reduce__'
p18
S'<built-in method __reduce__ of ProgrammingError object>'
p19
sS'__dict__'
p20
S'{}'
p21
sS'__sizeof__'
p22
S'<built-in method __sizeof__ of ProgrammingError object>'
p23
sS'__weakref__'
p24
S'None'
p25
sS'__init__'
p26
S"<method-wrapper '__init__' of ProgrammingError object>"
p27
sS'__setattr__'
p28
S"<method-wrapper '__setattr__' of ProgrammingError object>"
p29
sS'__reduce_ex__'
p30
S'<built-in method __reduce_ex__ of ProgrammingError object>'
p31
sS'__new__'
p32
S'<built-in method __new__ of type object>'
p33
sS'__format__'
p34
S'<built-in method __format__ of ProgrammingError object>'
p35
sS'__class__'
p36
S"<class 'gluon.contrib.pg8000.ProgrammingError'>"
p37
sS'__doc__'
p38
S"'Generic exception raised for programming errors....http://www.python.org/dev/peps/pep-0249/>`_.\\n    '"
p39
sS'__getitem__'
p40
S"<method-wrapper '__getitem__' of ProgrammingError object>"
p41
sS'__setstate__'
p42
S'<built-in method __setstate__ of ProgrammingError object>'
p43
sS'__getattribute__'
p44
S"<method-wrapper '__getattribute__' of ProgrammingError object>"
p45
sS'args'
p46
S"('ERROR', '42601', 'error de sintaxis en o cerca de \\xc2\\xab)\\xc2\\xbb')"
p47
sS'__subclasshook__'
p48
S'<built-in method __subclasshook__ of type object>'
p49
sS'__unicode__'
p50
S'<built-in method __unicode__ of ProgrammingError object>'
p51
sS'__delattr__'
p52
S"<method-wrapper '__delattr__' of ProgrammingError object>"
p53
sS'__repr__'
p54
S"<method-wrapper '__repr__' of ProgrammingError object>"
p55
sS'__hash__'
p56
S"<method-wrapper '__hash__' of ProgrammingError object>"
p57
ssS'evalue'
p58
S"('ERROR', '42601', 'error de sintaxis en o cerca de \\xc2\\xab)\\xc2\\xbb')"
p59
sS'request'
p60
cgluon.html
XML_unpickle
p61
(S's\xaa^\x00\x00<div><table><tr><td style="font-weight:bold;vertical-align:top;">ajax</td><td style="vertical-align:top;">:</td><td><div>True</div></td></tr><tr><td style="font-weight:bold;vertical-align:top;">application</td><td style="vertical-align:top;">:</td><td><div>datos</div></td></tr><tr><td style="font-weight:bold;vertical-align:top;">args</td><td style="vertical-align:top;">:</td><td><div><table></table></div></td></tr><tr><td style="font-weight:bold;vertical-align:top;">cid</td><td style="vertical-align:top;">:</td><td><div>c755728721925</div></td></tr><tr><td style="font-weight:bold;vertical-align:top;">client</td><td style="vertical-align:top;">:</td><td><div>127.0.0.1</div></td></tr><tr><td style="font-weight:bold;vertical-align:top;">controller</td><td style="vertical-align:top;">:</td><td><div>appadmin</div></td></tr><tr><td style="font-weight:bold;vertical-align:top;">cookies</td><td style="vertical-align:top;">:</td><td><div><table><tr><td style="font-weight:bold;vertical-align:top;">session_id_admin</td><td style="vertical-align:top;">:</td><td><div>127.0.0.1-a3c9ae65-7704-482f-bebc-089d174fb1d3<table><tr><td style="font-weight:bold;vertical-align:top;">comment</td><td style="vertical-align:top;">:</td><td><div></div></td></tr><tr><td style="font-weight:bold;vertical-align:top;">domain</td><td style="vertical-align:top;">:</td><td><div></div></td></tr><tr><td style="font-weight:bold;vertical-align:top;">expires</td><td style="vertical-align:top;">:</td><td><div></div></td></tr><tr><td style="font-weight:bold;vertical-align:top;">httponly</td><td style="vertical-align:top;">:</td><td><div></div></td></tr><tr><td style="font-weight:bold;vertical-align:top;">max-age</td><td style="vertical-align:top;">:</td><td><div></div></td></tr><tr><td style="font-weight:bold;vertical-align:top;">path</td><td style="vertical-align:top;">:</td><td><div></div></td></tr><tr><td style="font-weight:bold;vertical-align:top;">secure</td><td style="vertical-align:top;">:</td><td><div></div></td></tr><tr><td style="font-weight:bold;vertical-align:top;">version</td><td style="vertical-align:top;">:</td><td><div></div></td></tr></table></div></td></tr><tr><td style="font-weight:bold;vertical-align:top;">session_id_datos</td><td style="vertical-align:top;">:</td><td><div>127.0.0.1-c04605f5-440f-45db-8b1c-7504832862df<table><tr><td style="font-weight:bold;vertical-align:top;">comment</td><td style="vertical-align:top;">:</td><td><div></div></td></tr><tr><td style="font-weight:bold;vertical-align:top;">domain</td><td style="vertical-align:top;">:</td><td><div></div></td></tr><tr><td style="font-weight:bold;vertical-align:top;">expires</td><td style="vertical-align:top;">:</td><td><div></div></td></tr><tr><td style="font-weight:bold;vertical-align:top;">httponly</td><td style="vertical-align:top;">:</td><td><div></div></td></tr><tr><td style="font-weight:bold;vertical-align:top;">max-age</td><td style="vertical-align:top;">:</td><td><div></div></td></tr><tr><td style="font-weight:bold;vertical-align:top;">path</td><td style="vertical-align:top;">:</td><td><div></div></td></tr><tr><td style="font-weight:bold;vertical-align:top;">secure</td><td style="vertical-align:top;">:</td><td><div></div></td></tr><tr><td style="font-weight:bold;vertical-align:top;">version</td><td style="vertical-align:top;">:</td><td><div></div></td></tr></table></div></td></tr><tr><td style="font-weight:bold;vertical-align:top;">session_id_welcome</td><td style="vertical-align:top;">:</td><td><div>127.0.0.1-3f3f2057-a616-44e3-8449-9a8f24c63408<table><tr><td style="font-weight:bold;vertical-align:top;">comment</td><td style="vertical-align:top;">:</td><td><div></div></td></tr><tr><td style="font-weight:bold;vertical-align:top;">domain</td><td style="vertical-align:top;">:</td><td><div></div></td></tr><tr><td style="font-weight:bold;vertical-align:top;">expires</td><td style="vertical-align:top;">:</td><td><div></div></td></tr><tr><td style="font-weight:bold;vertical-align:top;">httponly</td><td style="vertical-align:top;">:</td><td><div></div></td></tr><tr><td style="font-weight:bold;vertical-align:top;">max-age</td><td style="vertical-align:top;">:</td><td><div></div></td></tr><tr><td style="font-weight:bold;vertical-align:top;">path</td><td style="vertical-align:top;">:</td><td><div></div></td></tr><tr><td style="font-weight:bold;vertical-align:top;">secure</td><td style="vertical-align:top;">:</td><td><div></div></td></tr><tr><td style="font-weight:bold;vertical-align:top;">version</td><td style="vertical-align:top;">:</td><td><div></div></td></tr></table></div></td></tr></table></div></td></tr><tr><td style="font-weight:bold;vertical-align:top;">env</td><td style="vertical-align:top;">:</td><td><div><table><tr><td style="font-weight:bold;vertical-align:top;">HTTP_ACCEPT</td><td style="vertical-align:top;">:</td><td><div>*/*</div></td></tr><tr><td style="font-weight:bold;vertical-align:top;">HTTP_ACCEPT_ENCODING</td><td style="vertical-align:top;">:</td><td><div>gzip, deflate</div></td></tr><tr><td style="font-weight:bold;vertical-align:top;">HTTP_ACCEPT_LANGUAGE</td><td style="vertical-align:top;">:</td><td><div>es-CO,es;q=0.8,es-AR;q=0.6,en-US;q=0.4,en;q=0.2</div></td></tr><tr><td style="font-weight:bold;vertical-align:top;">HTTP_CONNECTION</td><td style="vertical-align:top;">:</td><td><div>keep-alive</div></td></tr><tr><td style="font-weight:bold;vertical-align:top;">HTTP_COOKIE</td><td style="vertical-align:top;">:</td><td><div>session_id_welcome=127.0.0.1-3f3f2057-a616-44e3-8449-9a8f24c63408; session_id_admin=127.0.0.1-a3c9ae65-7704-482f-bebc-089d174fb1d3; session_id_datos=127.0.0.1-c04605f5-440f-45db-8b1c-7504832862df</div></td></tr><tr><td style="font-weight:bold;vertical-align:top;">HTTP_HOST</td><td style="vertical-align:top;">:</td><td><div>127.0.0.1:8000</div></td></tr><tr><td style="font-weight:bold;vertical-align:top;">HTTP_REFERER</td><td style="vertical-align:top;">:</td><td><div>http://127.0.0.1:8000/admin/default/edit/datos/controllers/default.py?id=controllers__default__py</div></td></tr><tr><td style="font-weight:bold;vertical-align:top;">HTTP_USER_AGENT</td><td style="vertical-align:top;">:</td><td><div>Mozilla/5.0 (X11; Fedora; Linux x86_64; rv:45.0) Gecko/20100101 Firefox/45.0</div></td></tr><tr><td style="font-weight:bold;vertical-align:top;">HTTP_WEB2PY_COMPONENT_ELEMENT</td><td style="vertical-align:top;">:</td><td><div>c755728721925</div></td></tr><tr><td style="font-weight:bold;vertical-align:top;">HTTP_WEB2PY_COMPONENT_LOCATION</td><td style="vertical-align:top;">:</td><td><div>http://127.0.0.1:8000/admin/default/edit/datos/controllers/default.py?id=controllers__default__py</div></td></tr><tr><td style="font-weight:bold;vertical-align:top;">HTTP_X_REQUESTED_WITH</td><td style="vertical-align:top;">:</td><td><div>XMLHttpRequest</div></td></tr><tr><td style="font-weight:bold;vertical-align:top;">PATH_INFO</td><td style="vertical-align:top;">:</td><td><div>/datos/appadmin/hooks</div></td></tr><tr><td style="font-weight:bold;vertical-align:top;">QUERY_STRING</td><td style="vertical-align:top;">:</td><td><div></div></td></tr><tr><td style="font-weight:bold;vertical-align:top;">REMOTE_ADDR</td><td style="vertical-align:top;">:</td><td><div>127.0.0.1</div></td></tr><tr><td style="font-weight:bold;vertical-align:top;">REMOTE_PORT</td><td style="vertical-align:top;">:</td><td><div>59204</div></td></tr><tr><td style="font-weight:bold;vertical-align:top;">REQUEST_METHOD</td><td style="vertical-align:top;">:</td><td><div>GET</div></td></tr><tr><td style="font-weight:bold;vertical-align:top;">SCRIPT_NAME</td><td style="vertical-align:top;">:</td><td><div></div></td></tr><tr><td style="font-weight:bold;vertical-align:top;">SERVER_NAME</td><td style="vertical-align:top;">:</td><td><div>localhost.localdomain</div></td></tr><tr><td style="font-weight:bold;vertical-align:top;">SERVER_PORT</td><td style="vertical-align:top;">:</td><td><div>8000</div></td></tr><tr><td style="font-weight:bold;vertical-align:top;">SERVER_PROTOCOL</td><td style="vertical-align:top;">:</td><td><div>HTTP/1.1</div></td></tr><tr><td style="font-weight:bold;vertical-align:top;">SERVER_SOFTWARE</td><td style="vertical-align:top;">:</td><td><div>Rocket 1.2.6</div></td></tr><tr><td style="font-weight:bold;vertical-align:top;">app_folders</td><td style="vertical-align:top;">:</td><td><div>set([&#x27;/home/Carlos/Descargas/web2py/applications/welcome/&#x27;, &#x27;/home/Carlos/Descargas/web2py/applications/admin/&#x27;, &#x27;/home/Carlos/Descargas/web2py/applications/datos/&#x27;])</div></td></tr><tr><td style="font-weight:bold;vertical-align:top;">applications_parent</td><td style="vertical-align:top;">:</td><td><div>/home/Carlos/Descargas/web2py</div></td></tr><tr><td style="font-weight:bold;vertical-align:top;">cmd_args</td><td style="vertical-align:top;">:</td><td><div><table></table></div></td></tr><tr><td style="font-weight:bold;vertical-align:top;">cmd_options</td><td style="vertical-align:top;">:</td><td><div>&lt;Values at 0x7f601c3c5d40: {&#x27;verbose&#x27;: False, &#x27;ip&#x27;: &#x27;127.0.0.1&#x27;, &#x27;debuglevel&#x27;: 30, &#x27;with_scheduler&#x27;: True, &#x27;shutdown_timeout&#x27;: 5, &#x27;taskbar&#x27;: False, &#x27;with_coverage&#x27;: False, &#x27;pid_filename&#x27;: &#x27;httpserver.pid&#x27;, &#x27;maxthreads&#x27;: None, &#x27;softcron&#x27;: False, &#x27;server_name&#x27;: &#x27;localhost.localdomain&#x27;, &#x27;bpython&#x27;: False, &#x27;nogui&#x27;: False, &#x27;port&#x27;: 8000, &#x27;print_errors&#x27;: False, &#x27;extcron&#x27;: False, &#x27;runcron&#x27;: False, &#x27;run_system_tests&#x27;: False, &#x27;test&#x27;: None, &#x27;folder&#x27;: &#x27;/home/Carlos/Descargas/web2py&#x27;, &#x27;config&#x27;: &#x27;&#x27;, &#x27;minthreads&#x27;: None, &#x27;shell&#x27;: None, &#x27;run&#x27;: &#x27;&#x27;, &#x27;log_filename&#x27;: &#x27;httpserver.log&#x27;, &#x27;profiler_dir&#x27;: None, &#x27;args&#x27;: [&#x27;&#x27;], &#x27;socket_timeout&#x27;: 5, &#x27;ssl_ca_certificate&#x27;: None, &#x27;scheduler&#x27;: &#x27;datos&#x27;, &#x27;interfaces&#x27;: None, &#x27;ssl_private_key&#x27;: &#x27;&#x27;, &#x27;gae&#x27;: None, &#x27;password&#x27;: &#x27;******&#x27;, &#x27;request_queue_size&#x27;: 5, &#x27;ssl_certificate&#x27;: &#x27;&#x27;, &#x27;cronjob&#x27;: False, &#x27;numthreads&#x27;: None, &#x27;quiet&#x27;: False, &#x27;import_models&#x27;: False, &#x27;timeout&#x27;: 10, &#x27;plain&#x27;: False, &#x27;nobanner&#x27;: False}&gt;</div></td></tr><tr><td style="font-weight:bold;vertical-align:top;">db_sessions</td><td style="vertical-align:top;">:</td><td><div>set([])</div></td></tr><tr><td style="font-weight:bold;vertical-align:top;">debugging</td><td style="vertical-align:top;">:</td><td><div>True</div></td></tr><tr><td style="font-weight:bold;vertical-align:top;">gluon_parent</td><td style="vertical-align:top;">:</td><td><div>/home/Carlos/Descargas/web2py</div></td></tr><tr><td style="font-weight:bold;vertical-align:top;">http_accept</td><td style="vertical-align:top;">:</td><td><div>*/*</div></td></tr><tr><td style="font-weight:bold;vertical-align:top;">http_accept_encoding</td><td style="vertical-align:top;">:</td><td><div>gzip, deflate</div></td></tr><tr><td style="font-weight:bold;vertical-align:top;">http_accept_language</td><td style="vertical-align:top;">:</td><td><div>es-CO,es;q=0.8,es-AR;q=0.6,en-US;q=0.4,en;q=0.2</div></td></tr><tr><td style="font-weight:bold;vertical-align:top;">http_connection</td><td style="vertical-align:top;">:</td><td><div>keep-alive</div></td></tr><tr><td style="font-weight:bold;vertical-align:top;">http_cookie</td><td style="vertical-align:top;">:</td><td><div>session_id_welcome=127.0.0.1-3f3f2057-a616-44e3-8449-9a8f24c63408; session_id_admin=127.0.0.1-a3c9ae65-7704-482f-bebc-089d174fb1d3; session_id_datos=127.0.0.1-c04605f5-440f-45db-8b1c-7504832862df</div></td></tr><tr><td style="font-weight:bold;vertical-align:top;">http_host</td><td style="vertical-align:top;">:</td><td><div>127.0.0.1:8000</div></td></tr><tr><td style="font-weight:bold;vertical-align:top;">http_referer</td><td style="vertical-align:top;">:</td><td><div>http://127.0.0.1:8000/admin/default/edit/datos/controllers/default.py?id=controllers__default__py</div></td></tr><tr><td style="font-weight:bold;vertical-align:top;">http_user_agent</td><td style="vertical-align:top;">:</td><td><div>Mozilla/5.0 (X11; Fedora; Linux x86_64; rv:45.0) Gecko/20100101 Firefox/45.0</div></td></tr><tr><td style="font-weight:bold;vertical-align:top;">http_web2py_component_element</td><td style="vertical-align:top;">:</td><td><div>c755728721925</div></td></tr><tr><td style="font-weight:bold;vertical-align:top;">http_web2py_component_location</td><td style="vertical-align:top;">:</td><td><div>http://127.0.0.1:8000/admin/default/edit/datos/controllers/default.py?id=controllers__default__py</div></td></tr><tr><td style="font-weight:bold;vertical-align:top;">http_x_requested_with</td><td style="vertical-align:top;">:</td><td><div>XMLHttpRequest</div></td></tr><tr><td style="font-weight:bold;vertical-align:top;">is_jython</td><td style="vertical-align:top;">:</td><td><div>False</div></td></tr><tr><td style="font-weight:bold;vertical-align:top;">is_pypy</td><td style="vertical-align:top;">:</td><td><div>False</div></td></tr><tr><td style="font-weight:bold;vertical-align:top;">is_source</td><td style="vertical-align:top;">:</td><td><div>True</div></td></tr><tr><td style="font-weight:bold;vertical-align:top;">local_hosts</td><td style="vertical-align:top;">:</td><td><div><table><tr><td><div>::1</div></td></tr><tr><td><div>::ffff:127.0.0.1</div></td></tr><tr><td><div>127.0.0.1</div></td></tr><tr><td><div>localhost.localdomain</div></td></tr></table></div></td></tr><tr><td style="font-weight:bold;vertical-align:top;">path_info</td><td style="vertical-align:top;">:</td><td><div>/datos/appadmin/hooks</div></td></tr><tr><td style="font-weight:bold;vertical-align:top;">query_string</td><td style="vertical-align:top;">:</td><td><div></div></td></tr><tr><td style="font-weight:bold;vertical-align:top;">remote_addr</td><td style="vertical-align:top;">:</td><td><div>127.0.0.1</div></td></tr><tr><td style="font-weight:bold;vertical-align:top;">remote_port</td><td style="vertical-align:top;">:</td><td><div>59204</div></td></tr><tr><td style="font-weight:bold;vertical-align:top;">request_method</td><td style="vertical-align:top;">:</td><td><div>GET</div></td></tr><tr><td style="font-weight:bold;vertical-align:top;">request_uri</td><td style="vertical-align:top;">:</td><td><div>/datos/appadmin/hooks</div></td></tr><tr><td style="font-weight:bold;vertical-align:top;">script_name</td><td style="vertical-align:top;">:</td><td><div></div></td></tr><tr><td style="font-weight:bold;vertical-align:top;">server_name</td><td style="vertical-align:top;">:</td><td><div>localhost.localdomain</div></td></tr><tr><td style="font-weight:bold;vertical-align:top;">server_port</td><td style="vertical-align:top;">:</td><td><div>8000</div></td></tr><tr><td style="font-weight:bold;vertical-align:top;">server_protocol</td><td style="vertical-align:top;">:</td><td><div>HTTP/1.1</div></td></tr><tr><td style="font-weight:bold;vertical-align:top;">server_software</td><td style="vertical-align:top;">:</td><td><div>Rocket 1.2.6</div></td></tr><tr><td style="font-weight:bold;vertical-align:top;">web2py_path</td><td style="vertical-align:top;">:</td><td><div>/home/Carlos/Descargas/web2py</div></td></tr><tr><td style="font-weight:bold;vertical-align:top;">web2py_version</td><td style="vertical-align:top;">:</td><td><div>2.14.3-stable+timestamp.2016.03.26.23.02.02</div></td></tr><tr><td style="font-weight:bold;vertical-align:top;">wsgi.errors</td><td style="vertical-align:top;">:</td><td><div>&lt;open file &#x27;&lt;stderr&gt;&#x27;, mode &#x27;w&#x27; at 0x7f602e3491e0&gt;</div></td></tr><tr><td style="font-weight:bold;vertical-align:top;">wsgi.file_wrapper</td><td style="vertical-align:top;">:</td><td><div>&lt;class wsgiref.util.FileWrapper at 0x7f601c4686d0&gt;</div></td></tr><tr><td style="font-weight:bold;vertical-align:top;">wsgi.input</td><td style="vertical-align:top;">:</td><td><div>&lt;socket._fileobject object at 0x7f5ff80a50d0&gt;</div></td></tr><tr><td style="font-weight:bold;vertical-align:top;">wsgi.multiprocess</td><td style="vertical-align:top;">:</td><td><div>False</div></td></tr><tr><td style="font-weight:bold;vertical-align:top;">wsgi.multithread</td><td style="vertical-align:top;">:</td><td><div>True</div></td></tr><tr><td style="font-weight:bold;vertical-align:top;">wsgi.run_once</td><td style="vertical-align:top;">:</td><td><div>False</div></td></tr><tr><td style="font-weight:bold;vertical-align:top;">wsgi.url_scheme</td><td style="vertical-align:top;">:</td><td><div>http</div></td></tr><tr><td style="font-weight:bold;vertical-align:top;">wsgi.version</td><td style="vertical-align:top;">:</td><td><div><table><tr><td><div>1</div></td></tr><tr><td><div>0</div></td></tr></table></div></td></tr><tr><td style="font-weight:bold;vertical-align:top;">wsgi_errors</td><td style="vertical-align:top;">:</td><td><div>&lt;open file &#x27;&lt;stderr&gt;&#x27;, mode &#x27;w&#x27; at 0x7f602e3491e0&gt;</div></td></tr><tr><td style="font-weight:bold;vertical-align:top;">wsgi_file_wrapper</td><td style="vertical-align:top;">:</td><td><div>&lt;class wsgiref.util.FileWrapper at 0x7f601c4686d0&gt;</div></td></tr><tr><td style="font-weight:bold;vertical-align:top;">wsgi_input</td><td style="vertical-align:top;">:</td><td><div>&lt;socket._fileobject object at 0x7f5ff80a50d0&gt;</div></td></tr><tr><td style="font-weight:bold;vertical-align:top;">wsgi_multiprocess</td><td style="vertical-align:top;">:</td><td><div>False</div></td></tr><tr><td style="font-weight:bold;vertical-align:top;">wsgi_multithread</td><td style="vertical-align:top;">:</td><td><div>True</div></td></tr><tr><td style="font-weight:bold;vertical-align:top;">wsgi_run_once</td><td style="vertical-align:top;">:</td><td><div>False</div></td></tr><tr><td style="font-weight:bold;vertical-align:top;">wsgi_url_scheme</td><td style="vertical-align:top;">:</td><td><div>http</div></td></tr><tr><td style="font-weight:bold;vertical-align:top;">wsgi_version</td><td style="vertical-align:top;">:</td><td><div><table><tr><td><div>1</div></td></tr><tr><td><div>0</div></td></tr></table></div></td></tr></table></div></td></tr><tr><td style="font-weight:bold;vertical-align:top;">extension</td><td style="vertical-align:top;">:</td><td><div>html</div></td></tr><tr><td style="font-weight:bold;vertical-align:top;">folder</td><td style="vertical-align:top;">:</td><td><div>/home/Carlos/Descargas/web2py/applications/datos/</div></td></tr><tr><td style="font-weight:bold;vertical-align:top;">function</td><td style="vertical-align:top;">:</td><td><div>hooks</div></td></tr><tr><td style="font-weight:bold;vertical-align:top;">global_settings</td><td style="vertical-align:top;">:</td><td><div><table><tr><td style="font-weight:bold;vertical-align:top;">app_folders</td><td style="vertical-align:top;">:</td><td><div>set([&#x27;/home/Carlos/Descargas/web2py/applications/welcome/&#x27;, &#x27;/home/Carlos/Descargas/web2py/applications/admin/&#x27;, &#x27;/home/Carlos/Descargas/web2py/applications/datos/&#x27;])</div></td></tr><tr><td style="font-weight:bold;vertical-align:top;">applications_parent</td><td style="vertical-align:top;">:</td><td><div>/home/Carlos/Descargas/web2py</div></td></tr><tr><td style="font-weight:bold;vertical-align:top;">cmd_args</td><td style="vertical-align:top;">:</td><td><div><table></table></div></td></tr><tr><td style="font-weight:bold;vertical-align:top;">cmd_options</td><td style="vertical-align:top;">:</td><td><div>&lt;Values at 0x7f601c3c5d40: {&#x27;verbose&#x27;: False, &#x27;ip&#x27;: &#x27;127.0.0.1&#x27;, &#x27;debuglevel&#x27;: 30, &#x27;with_scheduler&#x27;: True, &#x27;shutdown_timeout&#x27;: 5, &#x27;taskbar&#x27;: False, &#x27;with_coverage&#x27;: False, &#x27;pid_filename&#x27;: &#x27;httpserver.pid&#x27;, &#x27;maxthreads&#x27;: None, &#x27;softcron&#x27;: False, &#x27;server_name&#x27;: &#x27;localhost.localdomain&#x27;, &#x27;bpython&#x27;: False, &#x27;nogui&#x27;: False, &#x27;port&#x27;: 8000, &#x27;print_errors&#x27;: False, &#x27;extcron&#x27;: False, &#x27;runcron&#x27;: False, &#x27;run_system_tests&#x27;: False, &#x27;test&#x27;: None, &#x27;folder&#x27;: &#x27;/home/Carlos/Descargas/web2py&#x27;, &#x27;config&#x27;: &#x27;&#x27;, &#x27;minthreads&#x27;: None, &#x27;shell&#x27;: None, &#x27;run&#x27;: &#x27;&#x27;, &#x27;log_filename&#x27;: &#x27;httpserver.log&#x27;, &#x27;profiler_dir&#x27;: None, &#x27;args&#x27;: [&#x27;&#x27;], &#x27;socket_timeout&#x27;: 5, &#x27;ssl_ca_certificate&#x27;: None, &#x27;scheduler&#x27;: &#x27;datos&#x27;, &#x27;interfaces&#x27;: None, &#x27;ssl_private_key&#x27;: &#x27;&#x27;, &#x27;gae&#x27;: None, &#x27;password&#x27;: &#x27;******&#x27;, &#x27;request_queue_size&#x27;: 5, &#x27;ssl_certificate&#x27;: &#x27;&#x27;, &#x27;cronjob&#x27;: False, &#x27;numthreads&#x27;: None, &#x27;quiet&#x27;: False, &#x27;import_models&#x27;: False, &#x27;timeout&#x27;: 10, &#x27;plain&#x27;: False, &#x27;nobanner&#x27;: False}&gt;</div></td></tr><tr><td style="font-weight:bold;vertical-align:top;">db_sessions</td><td style="vertical-align:top;">:</td><td><div>set([])</div></td></tr><tr><td style="font-weight:bold;vertical-align:top;">debugging</td><td style="vertical-align:top;">:</td><td><div>True</div></td></tr><tr><td style="font-weight:bold;vertical-align:top;">gluon_parent</td><td style="vertical-align:top;">:</td><td><div>/home/Carlos/Descargas/web2py</div></td></tr><tr><td style="font-weight:bold;vertical-align:top;">is_jython</td><td style="vertical-align:top;">:</td><td><div>False</div></td></tr><tr><td style="font-weight:bold;vertical-align:top;">is_pypy</td><td style="vertical-align:top;">:</td><td><div>False</div></td></tr><tr><td style="font-weight:bold;vertical-align:top;">is_source</td><td style="vertical-align:top;">:</td><td><div>True</div></td></tr><tr><td style="font-weight:bold;vertical-align:top;">local_hosts</td><td style="vertical-align:top;">:</td><td><div><table><tr><td><div>::1</div></td></tr><tr><td><div>::ffff:127.0.0.1</div></td></tr><tr><td><div>127.0.0.1</div></td></tr><tr><td><div>localhost.localdomain</div></td></tr></table></div></td></tr><tr><td style="font-weight:bold;vertical-align:top;">web2py_version</td><td style="vertical-align:top;">:</td><td><div>2.14.3-stable+timestamp.2016.03.26.23.02.02</div></td></tr></table></div></td></tr><tr><td style="font-weight:bold;vertical-align:top;">is_https</td><td style="vertical-align:top;">:</td><td><div>False</div></td></tr><tr><td style="font-weight:bold;vertical-align:top;">is_local</td><td style="vertical-align:top;">:</td><td><div>True</div></td></tr><tr><td style="font-weight:bold;vertical-align:top;">is_restful</td><td style="vertical-align:top;">:</td><td><div>False</div></td></tr><tr><td style="font-weight:bold;vertical-align:top;">is_scheduler</td><td style="vertical-align:top;">:</td><td><div>False</div></td></tr><tr><td style="font-weight:bold;vertical-align:top;">is_shell</td><td style="vertical-align:top;">:</td><td><div>False</div></td></tr><tr><td style="font-weight:bold;vertical-align:top;">now</td><td style="vertical-align:top;">:</td><td><div>datetime.datetime(2016, 4, 22, 11, 26, 12, 799383)</div></td></tr><tr><td style="font-weight:bold;vertical-align:top;">raw_args</td><td style="vertical-align:top;">:</td><td><div></div></td></tr><tr><td style="font-weight:bold;vertical-align:top;">raw_extension</td><td style="vertical-align:top;">:</td><td><div>None</div></td></tr><tr><td style="font-weight:bold;vertical-align:top;">url</td><td style="vertical-align:top;">:</td><td><div>/datos/appadmin/hooks</div></td></tr><tr><td style="font-weight:bold;vertical-align:top;">utcnow</td><td style="vertical-align:top;">:</td><td><div>datetime.datetime(2016, 4, 22, 16, 26, 12, 799426)</div></td></tr><tr><td style="font-weight:bold;vertical-align:top;">wsgi</td><td style="vertical-align:top;">:</td><td><div>&lt;gluon.main.LazyWSGI object at 0x7f5fdad4ced0&gt;</div></td></tr></table></div>'
tRp62
sS'frames'
p63
(lp64
(dp65
S'file'
p66
S'/home/Carlos/Descargas/web2py/gluon/restricted.py'
p67
sS'dump'
p68
(dp69
S'environment'
p70
S"{'A': <class 'gluon.html.A'>, 'ANY_OF': <class 'gluon.validators.ANY_OF'>, 'ASSIGNJS': <function ASSIGNJS>, 'AppConfig': <function AppConfig>, 'Auth': <class 'gluon.tools.Auth'>, 'B': <class 'gluon.html.B'>, 'BEAUTIFY': <class 'gluon.html.BEAUTIFY'>, 'BODY': <class 'gluon.html.BODY'>, 'BR': <class 'gluon.html.BR'>, 'BUTTON': <class 'gluon.html.BUTTON'>, ...}"
p71
sS'ccode'
p72
S'<code object <module> at 0x7f5fdaaed930, file "/...eb2py/applications/datos/models/menu.py", line 8>'
p73
ssS'lnum'
p74
I227
sS'lines'
p75
(dp76
I224
S'            ccode = code'
p77
sI225
S'        else:'
p78
sI226
S'            ccode = compile2(code, layer)'
p79
sI227
S'        exec ccode in environment'
p80
sI228
S'    except HTTP:'
p81
sI229
S'        raise'
p82
sI230
S'    except RestrictedError:'
p83
sI231
S'        # do not encapsulate (obfuscate) the original RestrictedError'
p84
sI222
S'    try:'
p85
sI223
S'        if isinstance(code, types.CodeType):'
p86
ssS'call'
p87
S'(code=\'# -*- coding: utf-8 -*-\\n# this file is released ...ENU: _()\\n\\nif "auth" in locals(): auth.wikimenu()\\n\', environment={\'A\': <class \'gluon.html.A\'>, \'ANY_OF\': <class \'gluon.validators.ANY_OF\'>, \'ASSIGNJS\': <function ASSIGNJS>, \'AppConfig\': <function AppConfig>, \'Auth\': <class \'gluon.tools.Auth\'>, \'B\': <class \'gluon.html.B\'>, \'BEAUTIFY\': <class \'gluon.html.BEAUTIFY\'>, \'BODY\': <class \'gluon.html.BODY\'>, \'BR\': <class \'gluon.html.BR\'>, \'BUTTON\': <class \'gluon.html.BUTTON\'>, ...}, layer=\'/home/Carlos/Descargas/web2py/applications/datos/models/menu.py\')'
p88
sS'func'
p89
S'restricted'
p90
sa(dp91
g66
S'/home/Carlos/Descargas/web2py/applications/datos/models/menu.py'
p92
sg68
(dp93
S'distinct'
p94
S'undefined'
p95
sS'db1.course'
p96
S'<Table course (id, code_course, name_course, des...reated_on, created_by, modified_on, modified_by)>'
p97
sS'db1.course.name_course'
p98
S'<pydal.objects.Field object>'
p99
sS'db1.course_group'
p100
S'<Table course_group (id, cod_group, id_teacher, ...reated_on, created_by, modified_on, modified_by)>'
p101
sS'db1.course_group.id_teacher'
p102
S'<pydal.objects.Field object>'
p103
sS'auth'
p104
S'<gluon.tools.Auth object>'
p105
sS').select'
p106
g95
sS'db1'
p107
S'<DAL uri="postgres:******@localhost/Universidad">'
p108
sS'row'
p109
g95
sS'builtinTrue'
p110
S'True'
p111
sS'auth.user_id'
p112
S'11L'
p113
ssg74
I34
sg75
(dp114
I32
S'#List of course for userid  (Ex: User_id 1, machines 192.168.1.114,192.168.1.115)'
p115
sI33
S'couxuser = []'
p116
sI34
S'for row in db1((db1.course_group.id_teacher==auth.user_id) & ()).select(db1.course.name_course, distinct=True):'
p117
sI35
S'    #couxuser.append(row.cod_course.name_course)'
p118
sI36
S"    couxuser.append((T(row.cod_course.name_course), False, URL('default', '', )))"
p119
sI37
S''
sI38
S''
sI29
S"    (T('Home'), False, URL('default', 'index'), [])]"
p120
sI30
S''
sI31
S''
ssg87
S'()'
p121
sg89
S'<module>'
p122
sa(dp123
g66
S'/home/Carlos/Descargas/web2py/gluon/packages/dal/pydal/objects.py'
p124
sg68
(dp125
S'self.query'
p126
S'<Query ((course_group.id_teacher = 11) AND )>'
p127
sS'adapter.select'
p128
S'<bound method PostgreSQLAdapter.select of <pydal.adapters.postgres.PostgreSQLAdapter object>>'
p129
sS'fields'
p130
S'[<pydal.objects.Field object>]'
p131
sS'adapter'
p132
S'<pydal.adapters.postgres.PostgreSQLAdapter object>'
p133
sS'attributes'
p134
S"{'distinct': True}"
p135
sS'self'
p136
S'<Set ((course_group.id_teacher = 11) AND )>'
p137
ssg74
I2020
sg75
(dp138
I2016
S"                                    attributes.get('left', None),"
p139
sI2017
S"                                    attributes.get('orderby', None),"
p140
sI2018
S"                                    attributes.get('groupby', None))"
p141
sI2019
S'        fields = adapter.expand_all(fields, tablenames)'
p142
sI2020
S'        return adapter.select(self.query, fields, attributes)'
p143
sI2021
S''
sI2022
S'    def iterselect(self, *fields, **attributes):'
p144
sI2023
S'        adapter = self.db._adapter'
p145
sI2024
S'        tablenames = adapter.tables(self.query,'
p146
sI2015
S"                                    attributes.get('join', None),"
p147
ssg87
S"(self=<Set ((course_group.id_teacher = 11) AND )>, *fields=[<pydal.objects.Field object>], **attributes={'distinct': True})"
p148
sg89
S'select'
p149
sa(dp150
g66
S'/home/Carlos/Descargas/web2py/gluon/packages/dal/pydal/adapters/base.py'
p151
sg68
(dp152
S'fields'
p153
S'[<pydal.objects.Field object>]'
p154
sS'self'
p155
S'<pydal.adapters.postgres.PostgreSQLAdapter object>'
p156
sS'attributes'
p157
S"{'distinct': True}"
p158
sS'self._select_aux'
p159
S'<bound method PostgreSQLAdapter._select_aux of <pydal.adapters.postgres.PostgreSQLAdapter object>>'
p160
sS'sql'
p161
S"'SELECT DISTINCT course.name_course FROM course_g...urse WHERE ((course_group.id_teacher = 11) AND );'"
p162
ssg74
I1296
sg75
(dp163
I1291
S'            return cache_model('
p164
sI1292
S'                key,'
p165
sI1293
S'                lambda self=self,args=args:self._select_aux(*args),'
p166
sI1294
S'                time_expire)'
p167
sI1295
S'        else:'
p168
sI1296
S'            return self._select_aux(sql,fields,attributes)'
p169
sI1297
S''
sI1298
S'    def iterselect(self, query, fields, attributes):'
p170
sI1299
S'        sql = self._select(query, fields, attributes)'
p171
sI1300
S"        cacheable = attributes.get('cacheable', False)"
p172
ssg87
S"(self=<pydal.adapters.postgres.PostgreSQLAdapter object>, query=<Query ((course_group.id_teacher = 11) AND )>, fields=[<pydal.objects.Field object>], attributes={'distinct': True})"
p173
sg89
g149
sa(dp174
g66
S'/home/Carlos/Descargas/web2py/gluon/packages/dal/pydal/adapters/base.py'
p175
sg68
(dp176
S'self'
p177
S'<pydal.adapters.postgres.PostgreSQLAdapter object>'
p178
sS'self.execute'
p179
S'<bound method PostgreSQLAdapter.execute of <pydal.adapters.postgres.PostgreSQLAdapter object>>'
p180
sS'sql'
p181
S"'SELECT DISTINCT course.name_course FROM course_g...urse WHERE ((course_group.id_teacher = 11) AND );'"
p182
ssg74
I1253
sg75
(dp183
I1248
S''
sI1249
S'    def _select_aux(self, sql, fields, attributes):'
p184
sI1250
S'        args_get = attributes.get'
p185
sI1251
S"        cache = args_get('cache',None)"
p186
sI1252
S'        if not cache:'
p187
sI1253
S'            self.execute(sql)'
p188
sI1254
S'            rows = self._fetchall()'
p189
sI1255
S'        else:'
p190
sI1256
S'            if isinstance(cache, dict):'
p191
sI1257
S"                cache_model = cache['model']"
p192
ssg87
S"(self=<pydal.adapters.postgres.PostgreSQLAdapter object>, sql='SELECT DISTINCT course.name_course FROM course_g...urse WHERE ((course_group.id_teacher = 11) AND );', fields=[<pydal.objects.Field object>], attributes={'distinct': True})"
p193
sg89
S'_select_aux'
p194
sa(dp195
g66
S'/home/Carlos/Descargas/web2py/gluon/packages/dal/pydal/adapters/postgres.py'
p196
sg68
(dp197
S'a'
S"[u'SELECT DISTINCT course.name_course FROM course...rse WHERE ((course_group.id_teacher = 11) AND );']"
p198
sS'self'
p199
S'<pydal.adapters.postgres.PostgreSQLAdapter object>'
p200
sS'b'
g21
sS'BaseAdapter.execute'
p201
S'<unbound method BaseAdapter.execute>'
p202
sS'global BaseAdapter'
p203
S"<class 'pydal.adapters.base.BaseAdapter'>"
p204
ssg74
I362
sg75
(dp205
I357
S''
sI358
S'    def execute(self, *a, **b):'
p206
sI359
S'        if PY2 and self.driver_name == "pg8000":'
p207
sI360
S'            a = list(a)'
p208
sI361
S"            a[0] = a[0].decode('utf8')"
p209
sI362
S'        return BaseAdapter.execute(self, *a, **b)'
p210
sI363
S''
sI364
S''
sI365
S'class NewPostgreSQLAdapter(PostgreSQLAdapter):'
p211
sI366
S"    drivers = ('psycopg2','pg8000')"
p212
ssg87
S"(self=<pydal.adapters.postgres.PostgreSQLAdapter object>, *a=[u'SELECT DISTINCT course.name_course FROM course...rse WHERE ((course_group.id_teacher = 11) AND );'], **b={})"
p213
sg89
S'execute'
p214
sa(dp215
g66
S'/home/Carlos/Descargas/web2py/gluon/packages/dal/pydal/adapters/base.py'
p216
sg68
(dp217
S'a'
S"(u'SELECT DISTINCT course.name_course FROM course...rse WHERE ((course_group.id_teacher = 11) AND );',)"
p218
sS'self'
p219
S'<pydal.adapters.postgres.PostgreSQLAdapter object>'
p220
sS'b'
g21
sS'self.log_execute'
p221
S'<bound method PostgreSQLAdapter.log_execute of <pydal.adapters.postgres.PostgreSQLAdapter object>>'
p222
ssg74
I1388
sg75
(dp223
I1383
S'        self.db._timings.append((command,time.time()-t0))'
p224
sI1384
S'        del self.db._timings[:-TIMINGSSIZE]'
p225
sI1385
S'        return ret'
p226
sI1386
S''
sI1387
S'    def execute(self, *a, **b):'
p227
sI1388
S'        return self.log_execute(*a, **b)'
p228
sI1389
S''
sI1390
S'    def execute_test_query(self):'
p229
sI1391
S'        return self.execute(self.test_query)'
p230
sI1392
S''
ssg87
S"(self=<pydal.adapters.postgres.PostgreSQLAdapter object>, *a=(u'SELECT DISTINCT course.name_course FROM course...rse WHERE ((course_group.id_teacher = 11) AND );',), **b={})"
p231
sg89
g214
sa(dp232
g66
S'/home/Carlos/Descargas/web2py/gluon/packages/dal/pydal/adapters/base.py'
p233
sg68
(dp234
S'a'
S"(u'SELECT DISTINCT course.name_course FROM course...rse WHERE ((course_group.id_teacher = 11) AND );',)"
p235
sS'b'
g21
sS'self'
p236
S'<pydal.adapters.postgres.PostgreSQLAdapter object>'
p237
sS'ret'
p238
g95
sS'command'
p239
S"u'SELECT DISTINCT course.name_course FROM course...rse WHERE ((course_group.id_teacher = 11) AND );'"
p240
sS'self.get_cursor'
p241
S'<bound method PostgreSQLAdapter.get_cursor of <pydal.adapters.postgres.PostgreSQLAdapter object>>'
p242
sS').execute'
p243
g95
ssg74
I1382
sg75
(dp244
I1377
S'            command = self.filter_sql_command(command)'
p245
sI1378
S'        if self.db._debug:'
p246
sI1379
S"            self.db.logger.debug('SQL: %s' % command)"
p247
sI1380
S'        self.db._lastsql = command'
p248
sI1381
S'        t0 = time.time()'
p249
sI1382
S'        ret = self.get_cursor().execute(command, *a[1:], **b)'
p250
sI1383
S'        self.db._timings.append((command,time.time()-t0))'
p251
sI1384
S'        del self.db._timings[:-TIMINGSSIZE]'
p252
sI1385
S'        return ret'
p253
sI1386
S''
ssg87
S"(self=<pydal.adapters.postgres.PostgreSQLAdapter object>, *a=(u'SELECT DISTINCT course.name_course FROM course...rse WHERE ((course_group.id_teacher = 11) AND );',), **b={})"
p254
sg89
S'log_execute'
p255
sa(dp256
g66
S'/home/Carlos/Descargas/web2py/gluon/contrib/pg8000/core.py'
p257
sg68
(dp258
S'self'
p259
S'<gluon.contrib.pg8000.core.Cursor instance>'
p260
sS'args'
p261
S'None'
p262
sS'self._c.execute'
p263
S'<bound method Connection.execute of <gluon.contrib.pg8000.core.Connection object>>'
p264
sS'self._c'
p265
S'<gluon.contrib.pg8000.core.Connection object>'
p266
sS'operation'
p267
S"u'SELECT DISTINCT course.name_course FROM course...rse WHERE ((course_group.id_teacher = 11) AND );'"
p268
ssg74
I573
sg75
(dp269
I576
S'                raise InterfaceError("Cursor closed")'
p270
sI577
S'            elif self._c._sock is None:'
p271
sI568
S'            self._c._lock.acquire()'
p272
sI569
S'            self.stream = stream'
p273
sI570
S''
sI571
S'            if not self._c.in_transaction and not self._c.autocommit:'
p274
sI572
S'                self._c.execute(self, "begin transaction", None)'
p275
sI573
S'            self._c.execute(self, operation, args)'
p276
sI574
S'        except AttributeError:'
p277
sI575
S'            if self._c is None:'
p278
ssg87
S"(self=<gluon.contrib.pg8000.core.Cursor instance>, operation=u'SELECT DISTINCT course.name_course FROM course...rse WHERE ((course_group.id_teacher = 11) AND );', args=None, stream=None)"
p279
sg89
g214
sa(dp280
g66
S'/home/Carlos/Descargas/web2py/gluon/contrib/pg8000/core.py'
p281
sg68
(dp282
S'cursor'
p283
S'<gluon.contrib.pg8000.core.Cursor instance>'
p284
sS'self.handle_messages'
p285
S'<bound method Connection.handle_messages of <gluon.contrib.pg8000.core.Connection object>>'
p286
sS'self'
p287
S'<gluon.contrib.pg8000.core.Connection object>'
p288
ssg74
I1626
sg75
(dp289
I1621
S'                if self._sock is None:'
p290
sI1622
S'                    raise InterfaceError("connection is closed")'
p291
sI1623
S'                else:'
p292
sI1624
S'                    raise exc_info()[1]'
p293
sI1625
S''
sI1626
S'            self.handle_messages(cursor)'
p294
sI1627
S''
sI1628
S"            # We've got row_desc that allows us to identify what we're"
p295
sI1629
S'            # going to get back from this statement.'
p296
sI1630
S'            output_fc = tuple('
p297
ssg87
S"(self=<gluon.contrib.pg8000.core.Connection object>, cursor=<gluon.contrib.pg8000.core.Cursor instance>, operation=u'SELECT DISTINCT course.name_course FROM course...rse WHERE ((course_group.id_teacher = 11) AND );', vals=())"
p298
sg89
g214
sa(dp299
g66
S'/home/Carlos/Descargas/web2py/gluon/contrib/pg8000/core.py'
p300
sg68
(dp301
S'self'
p302
S'<gluon.contrib.pg8000.core.Connection object>'
p303
sS'self.error'
p304
S"ProgrammingError('ERROR', '42601', 'error de sintaxis en o cerca de \\xc2\\xab)\\xc2\\xbb')"
p305
ssg74
I1774
sg75
(dp306
I1769
S'        except:'
p307
sI1770
S'            self._close()'
p308
sI1771
S'            raise'
p309
sI1772
S''
sI1773
S'        if self.error is not None:'
p310
sI1774
S'            raise self.error'
p311
sI1775
S''
sI1776
S"    # Byte1('C') - Identifies the message as a close command."
p312
sI1777
S'    # Int32 - Message length, including self.'
p313
sI1778
S"    # Byte1 - 'S' for prepared statement, 'P' for portal."
p314
ssg87
S'(self=<gluon.contrib.pg8000.core.Connection object>, cursor=<gluon.contrib.pg8000.core.Cursor instance>)'
p315
sg89
S'handle_messages'
p316
sasS'pyver'
p317
S'Python 2.7.11: /usr/bin/python (prefix: /usr)'
p318
sS'session'
p319
g61
(S's\xeb\n\x00\x00<div><table><tr><td style="font-weight:bold;vertical-align:top;">ACTIONS</td><td style="vertical-align:top;">:</td><td><div><table><tr><td><div>Reiniciar</div></td></tr><tr><td><div>Agregar usuario</div></td></tr></table></div></td></tr><tr><td style="font-weight:bold;vertical-align:top;">auth</td><td style="vertical-align:top;">:</td><td><div><table><tr><td style="font-weight:bold;vertical-align:top;">expiration</td><td style="vertical-align:top;">:</td><td><div>3600</div></td></tr><tr><td style="font-weight:bold;vertical-align:top;">hmac_key</td><td style="vertical-align:top;">:</td><td><div>0a41eb2f-6e53-4ed8-8cd5-931414476901</div></td></tr><tr><td style="font-weight:bold;vertical-align:top;">last_visit</td><td style="vertical-align:top;">:</td><td><div>datetime.datetime(2016, 4, 22, 11, 26, 12, 799383)</div></td></tr><tr><td style="font-weight:bold;vertical-align:top;">remember_me</td><td style="vertical-align:top;">:</td><td><div>False</div></td></tr><tr><td style="font-weight:bold;vertical-align:top;">user</td><td style="vertical-align:top;">:</td><td><div><table><tr><td style="font-weight:bold;vertical-align:top;">email</td><td style="vertical-align:top;">:</td><td><div>uno@gmail.com</div></td></tr><tr><td style="font-weight:bold;vertical-align:top;">first_name</td><td style="vertical-align:top;">:</td><td><div>Eduardo</div></td></tr><tr><td style="font-weight:bold;vertical-align:top;">id</td><td style="vertical-align:top;">:</td><td><div>11L</div></td></tr><tr><td style="font-weight:bold;vertical-align:top;">last_name</td><td style="vertical-align:top;">:</td><td><div>Suarez</div></td></tr><tr><td style="font-weight:bold;vertical-align:top;">registration_id</td><td style="vertical-align:top;">:</td><td><div></div></td></tr><tr><td style="font-weight:bold;vertical-align:top;">registration_key</td><td style="vertical-align:top;">:</td><td><div></div></td></tr><tr><td style="font-weight:bold;vertical-align:top;">reset_password_key</td><td style="vertical-align:top;">:</td><td><div></div></td></tr></table></div></td></tr><tr><td style="font-weight:bold;vertical-align:top;">user_groups</td><td style="vertical-align:top;">:</td><td><div><table><tr><td style="font-weight:bold;vertical-align:top;">2</td><td style="vertical-align:top;">:</td><td><div>docente</div></td></tr></table></div></td></tr></table></div></td></tr><tr><td style="font-weight:bold;vertical-align:top;">flash</td><td style="vertical-align:top;">:</td><td><div>None</div></td></tr><tr><td style="font-weight:bold;vertical-align:top;">last_orderby</td><td style="vertical-align:top;">:</td><td><div>None</div></td></tr><tr><td style="font-weight:bold;vertical-align:top;">last_query</td><td style="vertical-align:top;">:</td><td><div>db1.auth_user.id&gt;0</div></td></tr></table></div>'
tRp320
sS'etype'
p321
S"<class 'gluon.contrib.pg8000.ProgrammingError'>"
p322
sS'date'
p323
S'Fri Apr 22 11:26:12 2016'
p324
sS'response'
p325
g61
(S's\x18\x1d\x00\x00<div><table><tr><td style="font-weight:bold;vertical-align:top;">body</td><td style="vertical-align:top;">:</td><td><div>&lt;cStringIO.StringO object at 0x7f5fdac02688&gt;</div></td></tr><tr><td style="font-weight:bold;vertical-align:top;">cookies</td><td style="vertical-align:top;">:</td><td><div><table><tr><td style="font-weight:bold;vertical-align:top;">session_id_datos</td><td style="vertical-align:top;">:</td><td><div>127.0.0.1-c04605f5-440f-45db-8b1c-7504832862df<table><tr><td style="font-weight:bold;vertical-align:top;">comment</td><td style="vertical-align:top;">:</td><td><div></div></td></tr><tr><td style="font-weight:bold;vertical-align:top;">domain</td><td style="vertical-align:top;">:</td><td><div></div></td></tr><tr><td style="font-weight:bold;vertical-align:top;">expires</td><td style="vertical-align:top;">:</td><td><div></div></td></tr><tr><td style="font-weight:bold;vertical-align:top;">httponly</td><td style="vertical-align:top;">:</td><td><div></div></td></tr><tr><td style="font-weight:bold;vertical-align:top;">max-age</td><td style="vertical-align:top;">:</td><td><div></div></td></tr><tr><td style="font-weight:bold;vertical-align:top;">path</td><td style="vertical-align:top;">:</td><td><div>/</div></td></tr><tr><td style="font-weight:bold;vertical-align:top;">secure</td><td style="vertical-align:top;">:</td><td><div></div></td></tr><tr><td style="font-weight:bold;vertical-align:top;">version</td><td style="vertical-align:top;">:</td><td><div></div></td></tr></table></div></td></tr></table></div></td></tr><tr><td style="font-weight:bold;vertical-align:top;">delimiters</td><td style="vertical-align:top;">:</td><td><div><table><tr><td><div>{{</div></td></tr><tr><td><div>}}</div></td></tr></table></div></td></tr><tr><td style="font-weight:bold;vertical-align:top;">files</td><td style="vertical-align:top;">:</td><td><div><table></table></div></td></tr><tr><td style="font-weight:bold;vertical-align:top;">flash</td><td style="vertical-align:top;">:</td><td><div></div></td></tr><tr><td style="font-weight:bold;vertical-align:top;">form_label_separator</td><td style="vertical-align:top;">:</td><td><div></div></td></tr><tr><td style="font-weight:bold;vertical-align:top;">formstyle</td><td style="vertical-align:top;">:</td><td><div>bootstrap3_inline</div></td></tr><tr><td style="font-weight:bold;vertical-align:top;">generic_patterns</td><td style="vertical-align:top;">:</td><td><div><table><tr><td><div>*</div></td></tr></table></div></td></tr><tr><td style="font-weight:bold;vertical-align:top;">google_analytics_id</td><td style="vertical-align:top;">:</td><td><div>None</div></td></tr><tr><td style="font-weight:bold;vertical-align:top;">headers</td><td style="vertical-align:top;">:</td><td><div><table><tr><td style="font-weight:bold;vertical-align:top;">X-Powered-By</td><td style="vertical-align:top;">:</td><td><div>web2py</div></td></tr></table></div></td></tr><tr><td style="font-weight:bold;vertical-align:top;">logo</td><td style="vertical-align:top;">:</td><td><div><a class="navbar-brand" href="/datos/default/index" id="pmv_logo"><b>VM-UD</b>&trade;&nbsp;</a></div></td></tr><tr><td style="font-weight:bold;vertical-align:top;">menu</td><td style="vertical-align:top;">:</td><td><div><table><tr><td><div><table><tr><td><div>Inicio</div></td></tr><tr><td><div>False</div></td></tr><tr><td><div>/datos/default/index</div></td></tr><tr><td><div><table></table></div></td></tr></table></div></td></tr></table></div></td></tr><tr><td style="font-weight:bold;vertical-align:top;">meta</td><td style="vertical-align:top;">:</td><td><div><table><tr><td style="font-weight:bold;vertical-align:top;">author</td><td style="vertical-align:top;">:</td><td><div>Carlos  &lt;suarezsilvestre1@gmail.com&gt;</div></td></tr><tr><td style="font-weight:bold;vertical-align:top;">description</td><td style="vertical-align:top;">:</td><td><div>a cool new app</div></td></tr><tr><td style="font-weight:bold;vertical-align:top;">generator</td><td style="vertical-align:top;">:</td><td><div>Web2py Web Framework</div></td></tr><tr><td style="font-weight:bold;vertical-align:top;">keywords</td><td style="vertical-align:top;">:</td><td><div>web2py, python, framework</div></td></tr></table></div></td></tr><tr><td style="font-weight:bold;vertical-align:top;">models_to_run</td><td style="vertical-align:top;">:</td><td><div><table><tr><td><div>^\\w+\\.py$</div></td></tr><tr><td><div>^appadmin/\\w+\\.py$</div></td></tr><tr><td><div>^appadmin/hooks/\\w+\\.py$</div></td></tr></table></div></td></tr><tr><td style="font-weight:bold;vertical-align:top;">postprocessing</td><td style="vertical-align:top;">:</td><td><div><table></table></div></td></tr><tr><td style="font-weight:bold;vertical-align:top;">session_client</td><td style="vertical-align:top;">:</td><td><div>127.0.0.1</div></td></tr><tr><td style="font-weight:bold;vertical-align:top;">session_cookie_compression_level</td><td style="vertical-align:top;">:</td><td><div>None</div></td></tr><tr><td style="font-weight:bold;vertical-align:top;">session_cookie_expires</td><td style="vertical-align:top;">:</td><td><div>None</div></td></tr><tr><td style="font-weight:bold;vertical-align:top;">session_data_name</td><td style="vertical-align:top;">:</td><td><div>session_data_datos</div></td></tr><tr><td style="font-weight:bold;vertical-align:top;">session_file</td><td style="vertical-align:top;">:</td><td><div>&lt;open file &#x27;/home/Carlos/Descargas/web2py/applications/datos/sessions/14b/0ea/127.0.0.1-c04605f5-440f-45db-8b1c-7504832862df&#x27;, mode &#x27;rb+&#x27; at 0x7f5fdaae41e0&gt;</div></td></tr><tr><td style="font-weight:bold;vertical-align:top;">session_filename</td><td style="vertical-align:top;">:</td><td><div>/home/Carlos/Descargas/web2py/applications/datos/sessions/127.0.0.1-c04605f5-440f-45db-8b1c-7504832862df</div></td></tr><tr><td style="font-weight:bold;vertical-align:top;">session_hash</td><td style="vertical-align:top;">:</td><td><div>18a53c62184376702cbc722baa13ff0c</div></td></tr><tr><td style="font-weight:bold;vertical-align:top;">session_id</td><td style="vertical-align:top;">:</td><td><div>127.0.0.1-c04605f5-440f-45db-8b1c-7504832862df</div></td></tr><tr><td style="font-weight:bold;vertical-align:top;">session_id_name</td><td style="vertical-align:top;">:</td><td><div>session_id_datos</div></td></tr><tr><td style="font-weight:bold;vertical-align:top;">session_locked</td><td style="vertical-align:top;">:</td><td><div>True</div></td></tr><tr><td style="font-weight:bold;vertical-align:top;">session_masterapp</td><td style="vertical-align:top;">:</td><td><div>datos</div></td></tr><tr><td style="font-weight:bold;vertical-align:top;">session_new</td><td style="vertical-align:top;">:</td><td><div>False</div></td></tr><tr><td style="font-weight:bold;vertical-align:top;">session_storage_type</td><td style="vertical-align:top;">:</td><td><div>file</div></td></tr><tr><td style="font-weight:bold;vertical-align:top;">status</td><td style="vertical-align:top;">:</td><td><div>200</div></td></tr><tr><td style="font-weight:bold;vertical-align:top;">subtitle</td><td style="vertical-align:top;">:</td><td><div></div></td></tr><tr><td style="font-weight:bold;vertical-align:top;">title</td><td style="vertical-align:top;">:</td><td><div>Datos</div></td></tr><tr><td style="font-weight:bold;vertical-align:top;">view</td><td style="vertical-align:top;">:</td><td><div>appadmin/hooks.html</div></td></tr></table></div>'
tRp326
sS'locals'
p327
(dp328
S'cursor'
p329
S'<gluon.contrib.pg8000.core.Cursor instance>'
p330
sS'self'
p331
S'<gluon.contrib.pg8000.core.Connection object>'
p332
sg6
S"'Z'"
p333
sS'data_len'
p334
S'5'
sssS'traceback'
p335
S'Traceback (most recent call last):\n  File "/home/Carlos/Descargas/web2py/gluon/restricted.py", line 227, in restricted\n    exec ccode in environment\n  File "/home/Carlos/Descargas/web2py/applications/datos/models/menu.py", line 34, in <module>\n    for row in db1((db1.course_group.id_teacher==auth.user_id) & ()).select(db1.course.name_course, distinct=True):\n  File "/home/Carlos/Descargas/web2py/gluon/packages/dal/pydal/objects.py", line 2020, in select\n    return adapter.select(self.query, fields, attributes)\n  File "/home/Carlos/Descargas/web2py/gluon/packages/dal/pydal/adapters/base.py", line 1296, in select\n    return self._select_aux(sql,fields,attributes)\n  File "/home/Carlos/Descargas/web2py/gluon/packages/dal/pydal/adapters/base.py", line 1253, in _select_aux\n    self.execute(sql)\n  File "/home/Carlos/Descargas/web2py/gluon/packages/dal/pydal/adapters/postgres.py", line 362, in execute\n    return BaseAdapter.execute(self, *a, **b)\n  File "/home/Carlos/Descargas/web2py/gluon/packages/dal/pydal/adapters/base.py", line 1388, in execute\n    return self.log_execute(*a, **b)\n  File "/home/Carlos/Descargas/web2py/gluon/packages/dal/pydal/adapters/base.py", line 1382, in log_execute\n    ret = self.get_cursor().execute(command, *a[1:], **b)\n  File "/home/Carlos/Descargas/web2py/gluon/contrib/pg8000/core.py", line 573, in execute\n    self._c.execute(self, operation, args)\n  File "/home/Carlos/Descargas/web2py/gluon/contrib/pg8000/core.py", line 1626, in execute\n    self.handle_messages(cursor)\n  File "/home/Carlos/Descargas/web2py/gluon/contrib/pg8000/core.py", line 1774, in handle_messages\n    raise self.error\nProgrammingError: (\'ERROR\', \'42601\', \'error de sintaxis en o cerca de \\xc2\\xab)\\xc2\\xbb\')\n'
p336
s.